
STM_CAN_DISPLAY.elf:     file format elf32-littlearm

Sections:
Idx Name          Size      VMA       LMA       File off  Algn
  0 .isr_vector   0000010c  08000000  08000000  00010000  2**0
                  CONTENTS, ALLOC, LOAD, READONLY, DATA
  1 .text         00003bd4  0800010c  0800010c  0001010c  2**2
                  CONTENTS, ALLOC, LOAD, READONLY, CODE
  2 .rodata       00001e40  08003ce0  08003ce0  00013ce0  2**2
                  CONTENTS, ALLOC, LOAD, READONLY, DATA
  3 .init_array   00000004  08005b20  08005b20  00015b20  2**2
                  CONTENTS, ALLOC, LOAD, DATA
  4 .fini_array   00000004  08005b24  08005b24  00015b24  2**2
                  CONTENTS, ALLOC, LOAD, DATA
  5 .data         00000070  20000000  08005b28  00020000  2**2
                  CONTENTS, ALLOC, LOAD, DATA
  6 .bss          00000314  20000070  08005b98  00020070  2**2
                  ALLOC
  7 ._user_heap_stack 00001200  20000384  08005b98  00020384  2**0
                  ALLOC
  8 .ARM.attributes 00000029  00000000  00000000  00020070  2**0
                  CONTENTS, READONLY
  9 .debug_info   0008351d  00000000  00000000  00020099  2**0
                  CONTENTS, READONLY, DEBUGGING
 10 .debug_abbrev 0000461e  00000000  00000000  000a35b6  2**0
                  CONTENTS, READONLY, DEBUGGING
 11 .debug_loc    0002f2ba  00000000  00000000  000a7bd4  2**0
                  CONTENTS, READONLY, DEBUGGING
 12 .debug_aranges 00002940  00000000  00000000  000d6e90  2**3
                  CONTENTS, READONLY, DEBUGGING
 13 .debug_ranges 00002c60  00000000  00000000  000d97d0  2**3
                  CONTENTS, READONLY, DEBUGGING
 14 .debug_line   0000bd54  00000000  00000000  000dc430  2**0
                  CONTENTS, READONLY, DEBUGGING
 15 .debug_str    000159f3  00000000  00000000  000e8184  2**0
                  CONTENTS, READONLY, DEBUGGING
 16 .comment      0000007c  00000000  00000000  000fdb77  2**0
                  CONTENTS, READONLY
 17 .debug_frame  00009238  00000000  00000000  000fdbf4  2**2
                  CONTENTS, READONLY, DEBUGGING

Disassembly of section .text:

0800010c <__do_global_dtors_aux>:
 800010c:	b510      	push	{r4, lr}
 800010e:	4c05      	ldr	r4, [pc, #20]	; (8000124 <__do_global_dtors_aux+0x18>)
 8000110:	7823      	ldrb	r3, [r4, #0]
 8000112:	b933      	cbnz	r3, 8000122 <__do_global_dtors_aux+0x16>
 8000114:	4b04      	ldr	r3, [pc, #16]	; (8000128 <__do_global_dtors_aux+0x1c>)
 8000116:	b113      	cbz	r3, 800011e <__do_global_dtors_aux+0x12>
 8000118:	4804      	ldr	r0, [pc, #16]	; (800012c <__do_global_dtors_aux+0x20>)
 800011a:	f3af 8000 	nop.w
 800011e:	2301      	movs	r3, #1
 8000120:	7023      	strb	r3, [r4, #0]
 8000122:	bd10      	pop	{r4, pc}
 8000124:	20000070 	.word	0x20000070
 8000128:	00000000 	.word	0x00000000
 800012c:	08003cc8 	.word	0x08003cc8

08000130 <frame_dummy>:
 8000130:	b508      	push	{r3, lr}
 8000132:	4b03      	ldr	r3, [pc, #12]	; (8000140 <frame_dummy+0x10>)
 8000134:	b11b      	cbz	r3, 800013e <frame_dummy+0xe>
 8000136:	4903      	ldr	r1, [pc, #12]	; (8000144 <frame_dummy+0x14>)
 8000138:	4803      	ldr	r0, [pc, #12]	; (8000148 <frame_dummy+0x18>)
 800013a:	f3af 8000 	nop.w
 800013e:	bd08      	pop	{r3, pc}
 8000140:	00000000 	.word	0x00000000
 8000144:	20000074 	.word	0x20000074
 8000148:	08003cc8 	.word	0x08003cc8

0800014c <HAL_InitTick>:
  *       implementation  in user file.
  * @param TickPriority Tick interrupt priority.
  * @retval HAL status
  */
__weak HAL_StatusTypeDef HAL_InitTick(uint32_t TickPriority)
{
 800014c:	b538      	push	{r3, r4, r5, lr}
  /* Configure the SysTick to have interrupt in 1ms time basis*/
  if (HAL_SYSTICK_Config(SystemCoreClock / (1000U / uwTickFreq)) > 0U)
 800014e:	4b0e      	ldr	r3, [pc, #56]	; (8000188 <HAL_InitTick+0x3c>)
{
 8000150:	4605      	mov	r5, r0
  if (HAL_SYSTICK_Config(SystemCoreClock / (1000U / uwTickFreq)) > 0U)
 8000152:	7818      	ldrb	r0, [r3, #0]
 8000154:	f44f 737a 	mov.w	r3, #1000	; 0x3e8
 8000158:	fbb3 f3f0 	udiv	r3, r3, r0
 800015c:	4a0b      	ldr	r2, [pc, #44]	; (800018c <HAL_InitTick+0x40>)
 800015e:	6810      	ldr	r0, [r2, #0]
 8000160:	fbb0 f0f3 	udiv	r0, r0, r3
 8000164:	f000 fb42 	bl	80007ec <HAL_SYSTICK_Config>
 8000168:	4604      	mov	r4, r0
 800016a:	b958      	cbnz	r0, 8000184 <HAL_InitTick+0x38>
  {
    return HAL_ERROR;
  }

  /* Configure the SysTick IRQ priority */
  if (TickPriority < (1UL << __NVIC_PRIO_BITS))
 800016c:	2d0f      	cmp	r5, #15
 800016e:	d809      	bhi.n	8000184 <HAL_InitTick+0x38>
  {
    HAL_NVIC_SetPriority(SysTick_IRQn, TickPriority, 0U);
 8000170:	4602      	mov	r2, r0
 8000172:	4629      	mov	r1, r5
 8000174:	f04f 30ff 	mov.w	r0, #4294967295	; 0xffffffff
 8000178:	f000 faf6 	bl	8000768 <HAL_NVIC_SetPriority>
    uwTickPrio = TickPriority;
 800017c:	4b04      	ldr	r3, [pc, #16]	; (8000190 <HAL_InitTick+0x44>)
 800017e:	4620      	mov	r0, r4
 8000180:	601d      	str	r5, [r3, #0]
 8000182:	bd38      	pop	{r3, r4, r5, pc}
    return HAL_ERROR;
 8000184:	2001      	movs	r0, #1
    return HAL_ERROR;
  }

  /* Return function status */
  return HAL_OK;
}
 8000186:	bd38      	pop	{r3, r4, r5, pc}
 8000188:	20000000 	.word	0x20000000
 800018c:	20000008 	.word	0x20000008
 8000190:	20000004 	.word	0x20000004

08000194 <HAL_Init>:
  __HAL_FLASH_PREFETCH_BUFFER_ENABLE();
 8000194:	4a07      	ldr	r2, [pc, #28]	; (80001b4 <HAL_Init+0x20>)
{
 8000196:	b508      	push	{r3, lr}
  __HAL_FLASH_PREFETCH_BUFFER_ENABLE();
 8000198:	6813      	ldr	r3, [r2, #0]
  HAL_NVIC_SetPriorityGrouping(NVIC_PRIORITYGROUP_4);
 800019a:	2003      	movs	r0, #3
  __HAL_FLASH_PREFETCH_BUFFER_ENABLE();
 800019c:	f043 0310 	orr.w	r3, r3, #16
 80001a0:	6013      	str	r3, [r2, #0]
  HAL_NVIC_SetPriorityGrouping(NVIC_PRIORITYGROUP_4);
 80001a2:	f000 facf 	bl	8000744 <HAL_NVIC_SetPriorityGrouping>
  HAL_InitTick(TICK_INT_PRIORITY);
 80001a6:	2000      	movs	r0, #0
 80001a8:	f7ff ffd0 	bl	800014c <HAL_InitTick>
  HAL_MspInit();
 80001ac:	f001 fd82 	bl	8001cb4 <HAL_MspInit>
}
 80001b0:	2000      	movs	r0, #0
 80001b2:	bd08      	pop	{r3, pc}
 80001b4:	40022000 	.word	0x40022000

080001b8 <HAL_IncTick>:
  *      implementations in user file.
  * @retval None
  */
__weak void HAL_IncTick(void)
{
  uwTick += uwTickFreq;
 80001b8:	4a03      	ldr	r2, [pc, #12]	; (80001c8 <HAL_IncTick+0x10>)
 80001ba:	4b04      	ldr	r3, [pc, #16]	; (80001cc <HAL_IncTick+0x14>)
 80001bc:	6811      	ldr	r1, [r2, #0]
 80001be:	781b      	ldrb	r3, [r3, #0]
 80001c0:	440b      	add	r3, r1
 80001c2:	6013      	str	r3, [r2, #0]
 80001c4:	4770      	bx	lr
 80001c6:	bf00      	nop
 80001c8:	200001b0 	.word	0x200001b0
 80001cc:	20000000 	.word	0x20000000

080001d0 <HAL_GetTick>:
  *       implementations in user file.
  * @retval tick value
  */
__weak uint32_t HAL_GetTick(void)
{
  return uwTick;
 80001d0:	4b01      	ldr	r3, [pc, #4]	; (80001d8 <HAL_GetTick+0x8>)
 80001d2:	6818      	ldr	r0, [r3, #0]
}
 80001d4:	4770      	bx	lr
 80001d6:	bf00      	nop
 80001d8:	200001b0 	.word	0x200001b0

080001dc <HAL_Delay>:
  *       implementations in user file.
  * @param Delay specifies the delay time length, in milliseconds.
  * @retval None
  */
__weak void HAL_Delay(uint32_t Delay)
{
 80001dc:	b538      	push	{r3, r4, r5, lr}
 80001de:	4604      	mov	r4, r0
  uint32_t tickstart = HAL_GetTick();
 80001e0:	f7ff fff6 	bl	80001d0 <HAL_GetTick>
 80001e4:	4605      	mov	r5, r0
  uint32_t wait = Delay;

  /* Add a freq to guarantee minimum wait */
  if (wait < HAL_MAX_DELAY)
 80001e6:	1c63      	adds	r3, r4, #1
  {
    wait += (uint32_t)(uwTickFreq);
 80001e8:	bf1e      	ittt	ne
 80001ea:	4b04      	ldrne	r3, [pc, #16]	; (80001fc <HAL_Delay+0x20>)
 80001ec:	781b      	ldrbne	r3, [r3, #0]
 80001ee:	18e4      	addne	r4, r4, r3
  }

  while ((HAL_GetTick() - tickstart) < wait)
 80001f0:	f7ff ffee 	bl	80001d0 <HAL_GetTick>
 80001f4:	1b40      	subs	r0, r0, r5
 80001f6:	4284      	cmp	r4, r0
 80001f8:	d8fa      	bhi.n	80001f0 <HAL_Delay+0x14>
  {
  }
}
 80001fa:	bd38      	pop	{r3, r4, r5, pc}
 80001fc:	20000000 	.word	0x20000000

08000200 <HAL_CAN_Init>:
  * @param  hcan pointer to a CAN_HandleTypeDef structure that contains
  *         the configuration information for the specified CAN.
  * @retval HAL status
  */
HAL_StatusTypeDef HAL_CAN_Init(CAN_HandleTypeDef *hcan)
{
 8000200:	b538      	push	{r3, r4, r5, lr}
  uint32_t tickstart;

  /* Check CAN handle */
  if (hcan == NULL)
 8000202:	4604      	mov	r4, r0
 8000204:	2800      	cmp	r0, #0
 8000206:	d06e      	beq.n	80002e6 <HAL_CAN_Init+0xe6>
    /* Init the low level hardware: CLOCK, NVIC */
    hcan->MspInitCallback(hcan);
  }

#else
  if (hcan->State == HAL_CAN_STATE_RESET)
 8000208:	f890 3020 	ldrb.w	r3, [r0, #32]
 800020c:	b90b      	cbnz	r3, 8000212 <HAL_CAN_Init+0x12>
  {
    /* Init the low level hardware: CLOCK, NVIC */
    HAL_CAN_MspInit(hcan);
 800020e:	f001 fd73 	bl	8001cf8 <HAL_CAN_MspInit>
  }
#endif /* (USE_HAL_CAN_REGISTER_CALLBACKS) */

  /* Exit from sleep mode */
  CLEAR_BIT(hcan->Instance->MCR, CAN_MCR_SLEEP);
 8000212:	6822      	ldr	r2, [r4, #0]
 8000214:	6813      	ldr	r3, [r2, #0]
 8000216:	f023 0302 	bic.w	r3, r3, #2
 800021a:	6013      	str	r3, [r2, #0]

  /* Get tick */
  tickstart = HAL_GetTick();
 800021c:	f7ff ffd8 	bl	80001d0 <HAL_GetTick>
 8000220:	4605      	mov	r5, r0

  /* Check Sleep mode leave acknowledge */
  while ((hcan->Instance->MSR & CAN_MSR_SLAK) != 0U)
 8000222:	6823      	ldr	r3, [r4, #0]
 8000224:	685a      	ldr	r2, [r3, #4]
 8000226:	0791      	lsls	r1, r2, #30
 8000228:	d451      	bmi.n	80002ce <HAL_CAN_Init+0xce>
      return HAL_ERROR;
    }
  }

  /* Request initialisation */
  SET_BIT(hcan->Instance->MCR, CAN_MCR_INRQ);
 800022a:	681a      	ldr	r2, [r3, #0]
 800022c:	f042 0201 	orr.w	r2, r2, #1
 8000230:	601a      	str	r2, [r3, #0]

  /* Get tick */
  tickstart = HAL_GetTick();
 8000232:	f7ff ffcd 	bl	80001d0 <HAL_GetTick>
 8000236:	4605      	mov	r5, r0

  /* Wait initialisation acknowledge */
  while ((hcan->Instance->MSR & CAN_MSR_INAK) == 0U)
 8000238:	6823      	ldr	r3, [r4, #0]
 800023a:	685a      	ldr	r2, [r3, #4]
 800023c:	07d2      	lsls	r2, r2, #31
 800023e:	d554      	bpl.n	80002ea <HAL_CAN_Init+0xea>
      return HAL_ERROR;
    }
  }

  /* Set the time triggered communication mode */
  if (hcan->Init.TimeTriggeredMode == ENABLE)
 8000240:	7e22      	ldrb	r2, [r4, #24]
                                            hcan->Init.TimeSeg1       |
                                            hcan->Init.TimeSeg2       |
                                            (hcan->Init.Prescaler - 1U)));

  /* Initialize the error code */
  hcan->ErrorCode = HAL_CAN_ERROR_NONE;
 8000242:	2000      	movs	r0, #0
  if (hcan->Init.TimeTriggeredMode == ENABLE)
 8000244:	2a01      	cmp	r2, #1
    SET_BIT(hcan->Instance->MCR, CAN_MCR_TTCM);
 8000246:	681a      	ldr	r2, [r3, #0]
 8000248:	bf0c      	ite	eq
 800024a:	f042 0280 	orreq.w	r2, r2, #128	; 0x80
    CLEAR_BIT(hcan->Instance->MCR, CAN_MCR_TTCM);
 800024e:	f022 0280 	bicne.w	r2, r2, #128	; 0x80
 8000252:	601a      	str	r2, [r3, #0]
  if (hcan->Init.AutoBusOff == ENABLE)
 8000254:	7e62      	ldrb	r2, [r4, #25]
 8000256:	2a01      	cmp	r2, #1
    SET_BIT(hcan->Instance->MCR, CAN_MCR_ABOM);
 8000258:	681a      	ldr	r2, [r3, #0]
 800025a:	bf0c      	ite	eq
 800025c:	f042 0240 	orreq.w	r2, r2, #64	; 0x40
    CLEAR_BIT(hcan->Instance->MCR, CAN_MCR_ABOM);
 8000260:	f022 0240 	bicne.w	r2, r2, #64	; 0x40
 8000264:	601a      	str	r2, [r3, #0]
  if (hcan->Init.AutoWakeUp == ENABLE)
 8000266:	7ea2      	ldrb	r2, [r4, #26]
 8000268:	2a01      	cmp	r2, #1
    SET_BIT(hcan->Instance->MCR, CAN_MCR_AWUM);
 800026a:	681a      	ldr	r2, [r3, #0]
 800026c:	bf0c      	ite	eq
 800026e:	f042 0220 	orreq.w	r2, r2, #32
    CLEAR_BIT(hcan->Instance->MCR, CAN_MCR_AWUM);
 8000272:	f022 0220 	bicne.w	r2, r2, #32
 8000276:	601a      	str	r2, [r3, #0]
  if (hcan->Init.AutoRetransmission == ENABLE)
 8000278:	7ee2      	ldrb	r2, [r4, #27]
 800027a:	2a01      	cmp	r2, #1
    CLEAR_BIT(hcan->Instance->MCR, CAN_MCR_NART);
 800027c:	681a      	ldr	r2, [r3, #0]
 800027e:	bf0c      	ite	eq
 8000280:	f022 0210 	biceq.w	r2, r2, #16
    SET_BIT(hcan->Instance->MCR, CAN_MCR_NART);
 8000284:	f042 0210 	orrne.w	r2, r2, #16
 8000288:	601a      	str	r2, [r3, #0]
  if (hcan->Init.ReceiveFifoLocked == ENABLE)
 800028a:	7f22      	ldrb	r2, [r4, #28]
 800028c:	2a01      	cmp	r2, #1
    SET_BIT(hcan->Instance->MCR, CAN_MCR_RFLM);
 800028e:	681a      	ldr	r2, [r3, #0]
 8000290:	bf0c      	ite	eq
 8000292:	f042 0208 	orreq.w	r2, r2, #8
    CLEAR_BIT(hcan->Instance->MCR, CAN_MCR_RFLM);
 8000296:	f022 0208 	bicne.w	r2, r2, #8
 800029a:	601a      	str	r2, [r3, #0]
  if (hcan->Init.TransmitFifoPriority == ENABLE)
 800029c:	7f62      	ldrb	r2, [r4, #29]
 800029e:	2a01      	cmp	r2, #1
    SET_BIT(hcan->Instance->MCR, CAN_MCR_TXFP);
 80002a0:	681a      	ldr	r2, [r3, #0]
 80002a2:	bf0c      	ite	eq
 80002a4:	f042 0204 	orreq.w	r2, r2, #4
    CLEAR_BIT(hcan->Instance->MCR, CAN_MCR_TXFP);
 80002a8:	f022 0204 	bicne.w	r2, r2, #4
 80002ac:	601a      	str	r2, [r3, #0]
  WRITE_REG(hcan->Instance->BTR, (uint32_t)(hcan->Init.Mode           |
 80002ae:	68e1      	ldr	r1, [r4, #12]
 80002b0:	68a2      	ldr	r2, [r4, #8]
 80002b2:	430a      	orrs	r2, r1
 80002b4:	6921      	ldr	r1, [r4, #16]
 80002b6:	430a      	orrs	r2, r1
 80002b8:	6961      	ldr	r1, [r4, #20]
 80002ba:	430a      	orrs	r2, r1
 80002bc:	6861      	ldr	r1, [r4, #4]
 80002be:	3901      	subs	r1, #1
 80002c0:	430a      	orrs	r2, r1
 80002c2:	61da      	str	r2, [r3, #28]

  /* Initialize the CAN state */
  hcan->State = HAL_CAN_STATE_READY;
 80002c4:	2301      	movs	r3, #1
  hcan->ErrorCode = HAL_CAN_ERROR_NONE;
 80002c6:	6260      	str	r0, [r4, #36]	; 0x24
  hcan->State = HAL_CAN_STATE_READY;
 80002c8:	f884 3020 	strb.w	r3, [r4, #32]

  /* Return function status */
  return HAL_OK;
 80002cc:	bd38      	pop	{r3, r4, r5, pc}
    if ((HAL_GetTick() - tickstart) > CAN_TIMEOUT_VALUE)
 80002ce:	f7ff ff7f 	bl	80001d0 <HAL_GetTick>
 80002d2:	1b40      	subs	r0, r0, r5
 80002d4:	280a      	cmp	r0, #10
 80002d6:	d9a4      	bls.n	8000222 <HAL_CAN_Init+0x22>
      hcan->ErrorCode |= HAL_CAN_ERROR_TIMEOUT;
 80002d8:	6a63      	ldr	r3, [r4, #36]	; 0x24
 80002da:	f443 3300 	orr.w	r3, r3, #131072	; 0x20000
 80002de:	6263      	str	r3, [r4, #36]	; 0x24
      hcan->State = HAL_CAN_STATE_ERROR;
 80002e0:	2305      	movs	r3, #5
 80002e2:	f884 3020 	strb.w	r3, [r4, #32]
    return HAL_ERROR;
 80002e6:	2001      	movs	r0, #1
}
 80002e8:	bd38      	pop	{r3, r4, r5, pc}
    if ((HAL_GetTick() - tickstart) > CAN_TIMEOUT_VALUE)
 80002ea:	f7ff ff71 	bl	80001d0 <HAL_GetTick>
 80002ee:	1b40      	subs	r0, r0, r5
 80002f0:	280a      	cmp	r0, #10
 80002f2:	d9a1      	bls.n	8000238 <HAL_CAN_Init+0x38>
 80002f4:	e7f0      	b.n	80002d8 <HAL_CAN_Init+0xd8>

080002f6 <HAL_CAN_ConfigFilter>:
  */
HAL_StatusTypeDef HAL_CAN_ConfigFilter(CAN_HandleTypeDef *hcan, CAN_FilterTypeDef *sFilterConfig)
{
  uint32_t filternbrbitpos;
  CAN_TypeDef *can_ip = hcan->Instance;
  HAL_CAN_StateTypeDef state = hcan->State;
 80002f6:	f890 3020 	ldrb.w	r3, [r0, #32]
{
 80002fa:	b570      	push	{r4, r5, r6, lr}

  if ((state == HAL_CAN_STATE_READY) ||
 80002fc:	3b01      	subs	r3, #1
 80002fe:	2b01      	cmp	r3, #1
 8000300:	d85f      	bhi.n	80003c2 <HAL_CAN_ConfigFilter+0xcc>
    CLEAR_BIT(can_ip->FMR, CAN_FMR_CAN2SB);
    SET_BIT(can_ip->FMR, sFilterConfig->SlaveStartFilterBank << CAN_FMR_CAN2SB_Pos);

#endif
    /* Convert filter number into bit position */
    filternbrbitpos = (uint32_t)1 << (sFilterConfig->FilterBank & 0x1FU);
 8000302:	2401      	movs	r4, #1
  CAN_TypeDef *can_ip = hcan->Instance;
 8000304:	6803      	ldr	r3, [r0, #0]
    filternbrbitpos = (uint32_t)1 << (sFilterConfig->FilterBank & 0x1FU);
 8000306:	6948      	ldr	r0, [r1, #20]
    SET_BIT(can_ip->FMR, CAN_FMR_FINIT);
 8000308:	f8d3 2200 	ldr.w	r2, [r3, #512]	; 0x200
 800030c:	f042 0201 	orr.w	r2, r2, #1
 8000310:	f8c3 2200 	str.w	r2, [r3, #512]	; 0x200
    filternbrbitpos = (uint32_t)1 << (sFilterConfig->FilterBank & 0x1FU);
 8000314:	f000 021f 	and.w	r2, r0, #31
 8000318:	fa04 f202 	lsl.w	r2, r4, r2

    /* Filter Deactivation */
    CLEAR_BIT(can_ip->FA1R, filternbrbitpos);
 800031c:	43d4      	mvns	r4, r2
 800031e:	f8d3 521c 	ldr.w	r5, [r3, #540]	; 0x21c
 8000322:	4025      	ands	r5, r4
 8000324:	f8c3 521c 	str.w	r5, [r3, #540]	; 0x21c

    /* Filter Scale */
    if (sFilterConfig->FilterScale == CAN_FILTERSCALE_16BIT)
 8000328:	69cd      	ldr	r5, [r1, #28]
 800032a:	bb85      	cbnz	r5, 800038e <HAL_CAN_ConfigFilter+0x98>
    {
      /* 16-bit scale for the filter */
      CLEAR_BIT(can_ip->FS1R, filternbrbitpos);
 800032c:	f8d3 520c 	ldr.w	r5, [r3, #524]	; 0x20c

      /* First 16-bit identifier and First 16-bit mask */
      /* Or First 16-bit identifier and Second 16-bit identifier */
      can_ip->sFilterRegister[sFilterConfig->FilterBank].FR1 =
        ((0x0000FFFFU & (uint32_t)sFilterConfig->FilterMaskIdLow) << 16U) |
 8000330:	68ce      	ldr	r6, [r1, #12]
      CLEAR_BIT(can_ip->FS1R, filternbrbitpos);
 8000332:	4025      	ands	r5, r4
 8000334:	f8c3 520c 	str.w	r5, [r3, #524]	; 0x20c
        (0x0000FFFFU & (uint32_t)sFilterConfig->FilterIdLow);
 8000338:	888d      	ldrh	r5, [r1, #4]
 800033a:	eb03 00c0 	add.w	r0, r3, r0, lsl #3
        ((0x0000FFFFU & (uint32_t)sFilterConfig->FilterMaskIdLow) << 16U) |
 800033e:	ea45 4506 	orr.w	r5, r5, r6, lsl #16
      can_ip->sFilterRegister[sFilterConfig->FilterBank].FR1 =
 8000342:	f8c0 5240 	str.w	r5, [r0, #576]	; 0x240

      /* Second 16-bit identifier and Second 16-bit mask */
      /* Or Third 16-bit identifier and Fourth 16-bit identifier */
      can_ip->sFilterRegister[sFilterConfig->FilterBank].FR2 =
        ((0x0000FFFFU & (uint32_t)sFilterConfig->FilterMaskIdHigh) << 16U) |
 8000346:	688e      	ldr	r6, [r1, #8]
        (0x0000FFFFU & (uint32_t)sFilterConfig->FilterIdHigh);
 8000348:	880d      	ldrh	r5, [r1, #0]
        ((0x0000FFFFU & (uint32_t)sFilterConfig->FilterIdHigh) << 16U) |
        (0x0000FFFFU & (uint32_t)sFilterConfig->FilterIdLow);

      /* 32-bit mask or Second 32-bit identifier */
      can_ip->sFilterRegister[sFilterConfig->FilterBank].FR2 =
        ((0x0000FFFFU & (uint32_t)sFilterConfig->FilterMaskIdHigh) << 16U) |
 800034a:	ea45 4506 	orr.w	r5, r5, r6, lsl #16
      can_ip->sFilterRegister[sFilterConfig->FilterBank].FR2 =
 800034e:	f8c0 5244 	str.w	r5, [r0, #580]	; 0x244
        (0x0000FFFFU & (uint32_t)sFilterConfig->FilterMaskIdLow);
    }

    /* Filter Mode */
    if (sFilterConfig->FilterMode == CAN_FILTERMODE_IDMASK)
 8000352:	6988      	ldr	r0, [r1, #24]
 8000354:	bb68      	cbnz	r0, 80003b2 <HAL_CAN_ConfigFilter+0xbc>
    {
      /* Id/Mask mode for the filter*/
      CLEAR_BIT(can_ip->FM1R, filternbrbitpos);
 8000356:	f8d3 0204 	ldr.w	r0, [r3, #516]	; 0x204
 800035a:	4020      	ands	r0, r4
    }
    else /* CAN_FilterInitStruct->CAN_FilterMode == CAN_FilterMode_IdList */
    {
      /* Identifier list mode for the filter*/
      SET_BIT(can_ip->FM1R, filternbrbitpos);
 800035c:	f8c3 0204 	str.w	r0, [r3, #516]	; 0x204
    }

    /* Filter FIFO assignment */
    if (sFilterConfig->FilterFIFOAssignment == CAN_FILTER_FIFO0)
 8000360:	6908      	ldr	r0, [r1, #16]
 8000362:	bb50      	cbnz	r0, 80003ba <HAL_CAN_ConfigFilter+0xc4>
    {
      /* FIFO 0 assignation for the filter */
      CLEAR_BIT(can_ip->FFA1R, filternbrbitpos);
 8000364:	f8d3 0214 	ldr.w	r0, [r3, #532]	; 0x214
 8000368:	4020      	ands	r0, r4
    }
    else
    {
      /* FIFO 1 assignation for the filter */
      SET_BIT(can_ip->FFA1R, filternbrbitpos);
 800036a:	f8c3 0214 	str.w	r0, [r3, #532]	; 0x214
    }

    /* Filter activation */
    if (sFilterConfig->FilterActivation == CAN_FILTER_ENABLE)
 800036e:	6a09      	ldr	r1, [r1, #32]

    /* Leave the initialisation mode for the filter */
    CLEAR_BIT(can_ip->FMR, CAN_FMR_FINIT);

    /* Return function status */
    return HAL_OK;
 8000370:	2000      	movs	r0, #0
    if (sFilterConfig->FilterActivation == CAN_FILTER_ENABLE)
 8000372:	2901      	cmp	r1, #1
      SET_BIT(can_ip->FA1R, filternbrbitpos);
 8000374:	bf02      	ittt	eq
 8000376:	f8d3 121c 	ldreq.w	r1, [r3, #540]	; 0x21c
 800037a:	430a      	orreq	r2, r1
 800037c:	f8c3 221c 	streq.w	r2, [r3, #540]	; 0x21c
    CLEAR_BIT(can_ip->FMR, CAN_FMR_FINIT);
 8000380:	f8d3 2200 	ldr.w	r2, [r3, #512]	; 0x200
 8000384:	f022 0201 	bic.w	r2, r2, #1
 8000388:	f8c3 2200 	str.w	r2, [r3, #512]	; 0x200
    return HAL_OK;
 800038c:	bd70      	pop	{r4, r5, r6, pc}
    if (sFilterConfig->FilterScale == CAN_FILTERSCALE_32BIT)
 800038e:	2d01      	cmp	r5, #1
 8000390:	d1df      	bne.n	8000352 <HAL_CAN_ConfigFilter+0x5c>
      SET_BIT(can_ip->FS1R, filternbrbitpos);
 8000392:	f8d3 520c 	ldr.w	r5, [r3, #524]	; 0x20c
        ((0x0000FFFFU & (uint32_t)sFilterConfig->FilterIdHigh) << 16U) |
 8000396:	680e      	ldr	r6, [r1, #0]
      SET_BIT(can_ip->FS1R, filternbrbitpos);
 8000398:	4315      	orrs	r5, r2
 800039a:	f8c3 520c 	str.w	r5, [r3, #524]	; 0x20c
        (0x0000FFFFU & (uint32_t)sFilterConfig->FilterIdLow);
 800039e:	888d      	ldrh	r5, [r1, #4]
 80003a0:	eb03 00c0 	add.w	r0, r3, r0, lsl #3
        ((0x0000FFFFU & (uint32_t)sFilterConfig->FilterIdHigh) << 16U) |
 80003a4:	ea45 4506 	orr.w	r5, r5, r6, lsl #16
      can_ip->sFilterRegister[sFilterConfig->FilterBank].FR1 =
 80003a8:	f8c0 5240 	str.w	r5, [r0, #576]	; 0x240
        ((0x0000FFFFU & (uint32_t)sFilterConfig->FilterMaskIdHigh) << 16U) |
 80003ac:	688e      	ldr	r6, [r1, #8]
        (0x0000FFFFU & (uint32_t)sFilterConfig->FilterMaskIdLow);
 80003ae:	898d      	ldrh	r5, [r1, #12]
 80003b0:	e7cb      	b.n	800034a <HAL_CAN_ConfigFilter+0x54>
      SET_BIT(can_ip->FM1R, filternbrbitpos);
 80003b2:	f8d3 0204 	ldr.w	r0, [r3, #516]	; 0x204
 80003b6:	4310      	orrs	r0, r2
 80003b8:	e7d0      	b.n	800035c <HAL_CAN_ConfigFilter+0x66>
      SET_BIT(can_ip->FFA1R, filternbrbitpos);
 80003ba:	f8d3 0214 	ldr.w	r0, [r3, #532]	; 0x214
 80003be:	4310      	orrs	r0, r2
 80003c0:	e7d3      	b.n	800036a <HAL_CAN_ConfigFilter+0x74>
  }
  else
  {
    /* Update error code */
    hcan->ErrorCode |= HAL_CAN_ERROR_NOT_INITIALIZED;
 80003c2:	6a43      	ldr	r3, [r0, #36]	; 0x24
 80003c4:	f443 2380 	orr.w	r3, r3, #262144	; 0x40000
 80003c8:	6243      	str	r3, [r0, #36]	; 0x24

    return HAL_ERROR;
 80003ca:	2001      	movs	r0, #1
  }
}
 80003cc:	bd70      	pop	{r4, r5, r6, pc}

080003ce <HAL_CAN_Start>:
  * @param  hcan pointer to an CAN_HandleTypeDef structure that contains
  *         the configuration information for the specified CAN.
  * @retval HAL status
  */
HAL_StatusTypeDef HAL_CAN_Start(CAN_HandleTypeDef *hcan)
{
 80003ce:	b538      	push	{r3, r4, r5, lr}
  uint32_t tickstart;

  if (hcan->State == HAL_CAN_STATE_READY)
 80003d0:	f890 3020 	ldrb.w	r3, [r0, #32]
{
 80003d4:	4604      	mov	r4, r0
  if (hcan->State == HAL_CAN_STATE_READY)
 80003d6:	2b01      	cmp	r3, #1
 80003d8:	d11f      	bne.n	800041a <HAL_CAN_Start+0x4c>
  {
    /* Change CAN peripheral state */
    hcan->State = HAL_CAN_STATE_LISTENING;
 80003da:	2302      	movs	r3, #2

    /* Request leave initialisation */
    CLEAR_BIT(hcan->Instance->MCR, CAN_MCR_INRQ);
 80003dc:	6802      	ldr	r2, [r0, #0]
    hcan->State = HAL_CAN_STATE_LISTENING;
 80003de:	f880 3020 	strb.w	r3, [r0, #32]
    CLEAR_BIT(hcan->Instance->MCR, CAN_MCR_INRQ);
 80003e2:	6813      	ldr	r3, [r2, #0]
 80003e4:	f023 0301 	bic.w	r3, r3, #1
 80003e8:	6013      	str	r3, [r2, #0]

    /* Get tick */
    tickstart = HAL_GetTick();
 80003ea:	f7ff fef1 	bl	80001d0 <HAL_GetTick>
 80003ee:	4605      	mov	r5, r0

    /* Wait the acknowledge */
    while ((hcan->Instance->MSR & CAN_MSR_INAK) != 0U)
 80003f0:	6823      	ldr	r3, [r4, #0]
 80003f2:	6858      	ldr	r0, [r3, #4]
 80003f4:	f010 0001 	ands.w	r0, r0, #1
 80003f8:	d101      	bne.n	80003fe <HAL_CAN_Start+0x30>
        return HAL_ERROR;
      }
    }

    /* Reset the CAN ErrorCode */
    hcan->ErrorCode = HAL_CAN_ERROR_NONE;
 80003fa:	6260      	str	r0, [r4, #36]	; 0x24

    /* Return function status */
    return HAL_OK;
 80003fc:	bd38      	pop	{r3, r4, r5, pc}
      if ((HAL_GetTick() - tickstart) > CAN_TIMEOUT_VALUE)
 80003fe:	f7ff fee7 	bl	80001d0 <HAL_GetTick>
 8000402:	1b40      	subs	r0, r0, r5
 8000404:	280a      	cmp	r0, #10
 8000406:	d9f3      	bls.n	80003f0 <HAL_CAN_Start+0x22>
        hcan->ErrorCode |= HAL_CAN_ERROR_TIMEOUT;
 8000408:	6a63      	ldr	r3, [r4, #36]	; 0x24
 800040a:	f443 3300 	orr.w	r3, r3, #131072	; 0x20000
 800040e:	6263      	str	r3, [r4, #36]	; 0x24
        hcan->State = HAL_CAN_STATE_ERROR;
 8000410:	2305      	movs	r3, #5
 8000412:	f884 3020 	strb.w	r3, [r4, #32]
  else
  {
    /* Update error code */
    hcan->ErrorCode |= HAL_CAN_ERROR_NOT_READY;

    return HAL_ERROR;
 8000416:	2001      	movs	r0, #1
  }
}
 8000418:	bd38      	pop	{r3, r4, r5, pc}
    hcan->ErrorCode |= HAL_CAN_ERROR_NOT_READY;
 800041a:	6a43      	ldr	r3, [r0, #36]	; 0x24
 800041c:	f443 2300 	orr.w	r3, r3, #524288	; 0x80000
 8000420:	6243      	str	r3, [r0, #36]	; 0x24
 8000422:	e7f8      	b.n	8000416 <HAL_CAN_Start+0x48>

08000424 <HAL_CAN_GetRxMessage>:
  *         of the Rx frame will be stored.
  * @param  aData array where the payload of the Rx frame will be stored.
  * @retval HAL status
  */
HAL_StatusTypeDef HAL_CAN_GetRxMessage(CAN_HandleTypeDef *hcan, uint32_t RxFifo, CAN_RxHeaderTypeDef *pHeader, uint8_t aData[])
{
 8000424:	b5f0      	push	{r4, r5, r6, r7, lr}
  HAL_CAN_StateTypeDef state = hcan->State;
 8000426:	f890 4020 	ldrb.w	r4, [r0, #32]

  assert_param(IS_CAN_RX_FIFO(RxFifo));

  if ((state == HAL_CAN_STATE_READY) ||
 800042a:	3c01      	subs	r4, #1
 800042c:	2c01      	cmp	r4, #1
 800042e:	d86b      	bhi.n	8000508 <HAL_CAN_GetRxMessage+0xe4>
 8000430:	6806      	ldr	r6, [r0, #0]
      (state == HAL_CAN_STATE_LISTENING))
  {
    /* Check the Rx FIFO */
    if (RxFifo == CAN_RX_FIFO0) /* Rx element is assigned to Rx FIFO 0 */
 8000432:	b941      	cbnz	r1, 8000446 <HAL_CAN_GetRxMessage+0x22>
    {
      /* Check that the Rx FIFO 0 is not empty */
      if ((hcan->Instance->RF0R & CAN_RF0R_FMP0) == 0U)
 8000434:	68f4      	ldr	r4, [r6, #12]
      }
    }
    else /* Rx element is assigned to Rx FIFO 1 */
    {
      /* Check that the Rx FIFO 1 is not empty */
      if ((hcan->Instance->RF1R & CAN_RF1R_FMP1) == 0U)
 8000436:	07a4      	lsls	r4, r4, #30
 8000438:	d107      	bne.n	800044a <HAL_CAN_GetRxMessage+0x26>
      {
        /* Update error code */
        hcan->ErrorCode |= HAL_CAN_ERROR_PARAM;
 800043a:	6a43      	ldr	r3, [r0, #36]	; 0x24
 800043c:	f443 1300 	orr.w	r3, r3, #2097152	; 0x200000
    return HAL_OK;
  }
  else
  {
    /* Update error code */
    hcan->ErrorCode |= HAL_CAN_ERROR_NOT_INITIALIZED;
 8000440:	6243      	str	r3, [r0, #36]	; 0x24

    return HAL_ERROR;
 8000442:	2001      	movs	r0, #1
  }
}
 8000444:	bdf0      	pop	{r4, r5, r6, r7, pc}
      if ((hcan->Instance->RF1R & CAN_RF1R_FMP1) == 0U)
 8000446:	6934      	ldr	r4, [r6, #16]
 8000448:	e7f5      	b.n	8000436 <HAL_CAN_GetRxMessage+0x12>
 800044a:	010c      	lsls	r4, r1, #4
 800044c:	1935      	adds	r5, r6, r4
    pHeader->IDE = CAN_RI0R_IDE & hcan->Instance->sFIFOMailBox[RxFifo].RIR;
 800044e:	f8d5 71b0 	ldr.w	r7, [r5, #432]	; 0x1b0
 8000452:	f007 0704 	and.w	r7, r7, #4
 8000456:	6097      	str	r7, [r2, #8]
    if (pHeader->IDE == CAN_ID_STD)
 8000458:	2f00      	cmp	r7, #0
 800045a:	d14b      	bne.n	80004f4 <HAL_CAN_GetRxMessage+0xd0>
      pHeader->StdId = (CAN_RI0R_STID & hcan->Instance->sFIFOMailBox[RxFifo].RIR) >> CAN_TI0R_STID_Pos;
 800045c:	f8d5 71b0 	ldr.w	r7, [r5, #432]	; 0x1b0
 8000460:	0d7f      	lsrs	r7, r7, #21
 8000462:	6017      	str	r7, [r2, #0]
    pHeader->RTR = (CAN_RI0R_RTR & hcan->Instance->sFIFOMailBox[RxFifo].RIR);
 8000464:	f8d5 71b0 	ldr.w	r7, [r5, #432]	; 0x1b0
    aData[0] = (uint8_t)((CAN_RDL0R_DATA0 & hcan->Instance->sFIFOMailBox[RxFifo].RDLR) >> CAN_RDL0R_DATA0_Pos);
 8000468:	4426      	add	r6, r4
    pHeader->RTR = (CAN_RI0R_RTR & hcan->Instance->sFIFOMailBox[RxFifo].RIR);
 800046a:	f007 0702 	and.w	r7, r7, #2
 800046e:	60d7      	str	r7, [r2, #12]
    pHeader->DLC = (CAN_RDT0R_DLC & hcan->Instance->sFIFOMailBox[RxFifo].RDTR) >> CAN_RDT0R_DLC_Pos;
 8000470:	f8d5 71b4 	ldr.w	r7, [r5, #436]	; 0x1b4
 8000474:	f007 070f 	and.w	r7, r7, #15
 8000478:	6117      	str	r7, [r2, #16]
    pHeader->FilterMatchIndex = (CAN_RDT0R_FMI & hcan->Instance->sFIFOMailBox[RxFifo].RDTR) >> CAN_RDT0R_FMI_Pos;
 800047a:	f8d5 71b4 	ldr.w	r7, [r5, #436]	; 0x1b4
    pHeader->Timestamp = (CAN_RDT0R_TIME & hcan->Instance->sFIFOMailBox[RxFifo].RDTR) >> CAN_RDT0R_TIME_Pos;
 800047e:	f8d5 51b4 	ldr.w	r5, [r5, #436]	; 0x1b4
    pHeader->FilterMatchIndex = (CAN_RDT0R_FMI & hcan->Instance->sFIFOMailBox[RxFifo].RDTR) >> CAN_RDT0R_FMI_Pos;
 8000482:	f3c7 2707 	ubfx	r7, r7, #8, #8
    pHeader->Timestamp = (CAN_RDT0R_TIME & hcan->Instance->sFIFOMailBox[RxFifo].RDTR) >> CAN_RDT0R_TIME_Pos;
 8000486:	0c2d      	lsrs	r5, r5, #16
    pHeader->FilterMatchIndex = (CAN_RDT0R_FMI & hcan->Instance->sFIFOMailBox[RxFifo].RDTR) >> CAN_RDT0R_FMI_Pos;
 8000488:	6197      	str	r7, [r2, #24]
    pHeader->Timestamp = (CAN_RDT0R_TIME & hcan->Instance->sFIFOMailBox[RxFifo].RDTR) >> CAN_RDT0R_TIME_Pos;
 800048a:	6155      	str	r5, [r2, #20]
    aData[0] = (uint8_t)((CAN_RDL0R_DATA0 & hcan->Instance->sFIFOMailBox[RxFifo].RDLR) >> CAN_RDL0R_DATA0_Pos);
 800048c:	f8d6 21b8 	ldr.w	r2, [r6, #440]	; 0x1b8
 8000490:	701a      	strb	r2, [r3, #0]
    aData[1] = (uint8_t)((CAN_RDL0R_DATA1 & hcan->Instance->sFIFOMailBox[RxFifo].RDLR) >> CAN_RDL0R_DATA1_Pos);
 8000492:	6802      	ldr	r2, [r0, #0]
 8000494:	4422      	add	r2, r4
 8000496:	f8d2 21b8 	ldr.w	r2, [r2, #440]	; 0x1b8
 800049a:	0a12      	lsrs	r2, r2, #8
 800049c:	705a      	strb	r2, [r3, #1]
    aData[2] = (uint8_t)((CAN_RDL0R_DATA2 & hcan->Instance->sFIFOMailBox[RxFifo].RDLR) >> CAN_RDL0R_DATA2_Pos);
 800049e:	6802      	ldr	r2, [r0, #0]
 80004a0:	4422      	add	r2, r4
 80004a2:	f8d2 21b8 	ldr.w	r2, [r2, #440]	; 0x1b8
 80004a6:	0c12      	lsrs	r2, r2, #16
 80004a8:	709a      	strb	r2, [r3, #2]
    aData[3] = (uint8_t)((CAN_RDL0R_DATA3 & hcan->Instance->sFIFOMailBox[RxFifo].RDLR) >> CAN_RDL0R_DATA3_Pos);
 80004aa:	6802      	ldr	r2, [r0, #0]
 80004ac:	4422      	add	r2, r4
 80004ae:	f8d2 21b8 	ldr.w	r2, [r2, #440]	; 0x1b8
 80004b2:	0e12      	lsrs	r2, r2, #24
 80004b4:	70da      	strb	r2, [r3, #3]
    aData[4] = (uint8_t)((CAN_RDH0R_DATA4 & hcan->Instance->sFIFOMailBox[RxFifo].RDHR) >> CAN_RDH0R_DATA4_Pos);
 80004b6:	6802      	ldr	r2, [r0, #0]
 80004b8:	4422      	add	r2, r4
 80004ba:	f8d2 21bc 	ldr.w	r2, [r2, #444]	; 0x1bc
 80004be:	711a      	strb	r2, [r3, #4]
    aData[5] = (uint8_t)((CAN_RDH0R_DATA5 & hcan->Instance->sFIFOMailBox[RxFifo].RDHR) >> CAN_RDH0R_DATA5_Pos);
 80004c0:	6802      	ldr	r2, [r0, #0]
 80004c2:	4422      	add	r2, r4
 80004c4:	f8d2 21bc 	ldr.w	r2, [r2, #444]	; 0x1bc
 80004c8:	0a12      	lsrs	r2, r2, #8
 80004ca:	715a      	strb	r2, [r3, #5]
    aData[6] = (uint8_t)((CAN_RDH0R_DATA6 & hcan->Instance->sFIFOMailBox[RxFifo].RDHR) >> CAN_RDH0R_DATA6_Pos);
 80004cc:	6802      	ldr	r2, [r0, #0]
 80004ce:	4422      	add	r2, r4
 80004d0:	f8d2 21bc 	ldr.w	r2, [r2, #444]	; 0x1bc
 80004d4:	0c12      	lsrs	r2, r2, #16
 80004d6:	719a      	strb	r2, [r3, #6]
    aData[7] = (uint8_t)((CAN_RDH0R_DATA7 & hcan->Instance->sFIFOMailBox[RxFifo].RDHR) >> CAN_RDH0R_DATA7_Pos);
 80004d8:	6802      	ldr	r2, [r0, #0]
 80004da:	4414      	add	r4, r2
 80004dc:	f8d4 21bc 	ldr.w	r2, [r4, #444]	; 0x1bc
 80004e0:	0e12      	lsrs	r2, r2, #24
 80004e2:	71da      	strb	r2, [r3, #7]
 80004e4:	6803      	ldr	r3, [r0, #0]
    if (RxFifo == CAN_RX_FIFO0) /* Rx element is assigned to Rx FIFO 0 */
 80004e6:	b951      	cbnz	r1, 80004fe <HAL_CAN_GetRxMessage+0xda>
      SET_BIT(hcan->Instance->RF0R, CAN_RF0R_RFOM0);
 80004e8:	68da      	ldr	r2, [r3, #12]
 80004ea:	f042 0220 	orr.w	r2, r2, #32
 80004ee:	60da      	str	r2, [r3, #12]
    return HAL_OK;
 80004f0:	2000      	movs	r0, #0
 80004f2:	bdf0      	pop	{r4, r5, r6, r7, pc}
      pHeader->ExtId = ((CAN_RI0R_EXID | CAN_RI0R_STID) & hcan->Instance->sFIFOMailBox[RxFifo].RIR) >> CAN_RI0R_EXID_Pos;
 80004f4:	f8d5 71b0 	ldr.w	r7, [r5, #432]	; 0x1b0
 80004f8:	08ff      	lsrs	r7, r7, #3
 80004fa:	6057      	str	r7, [r2, #4]
 80004fc:	e7b2      	b.n	8000464 <HAL_CAN_GetRxMessage+0x40>
      SET_BIT(hcan->Instance->RF1R, CAN_RF1R_RFOM1);
 80004fe:	691a      	ldr	r2, [r3, #16]
 8000500:	f042 0220 	orr.w	r2, r2, #32
 8000504:	611a      	str	r2, [r3, #16]
 8000506:	e7f3      	b.n	80004f0 <HAL_CAN_GetRxMessage+0xcc>
    hcan->ErrorCode |= HAL_CAN_ERROR_NOT_INITIALIZED;
 8000508:	6a43      	ldr	r3, [r0, #36]	; 0x24
 800050a:	f443 2380 	orr.w	r3, r3, #262144	; 0x40000
 800050e:	e797      	b.n	8000440 <HAL_CAN_GetRxMessage+0x1c>

08000510 <HAL_CAN_ActivateNotification>:
  *         This parameter can be any combination of @arg CAN_Interrupts.
  * @retval HAL status
  */
HAL_StatusTypeDef HAL_CAN_ActivateNotification(CAN_HandleTypeDef *hcan, uint32_t ActiveITs)
{
  HAL_CAN_StateTypeDef state = hcan->State;
 8000510:	f890 3020 	ldrb.w	r3, [r0, #32]

  /* Check function parameters */
  assert_param(IS_CAN_IT(ActiveITs));

  if ((state == HAL_CAN_STATE_READY) ||
 8000514:	3b01      	subs	r3, #1
 8000516:	2b01      	cmp	r3, #1
 8000518:	d805      	bhi.n	8000526 <HAL_CAN_ActivateNotification+0x16>
      (state == HAL_CAN_STATE_LISTENING))
  {
    /* Enable the selected interrupts */
    __HAL_CAN_ENABLE_IT(hcan, ActiveITs);
 800051a:	6802      	ldr	r2, [r0, #0]

    /* Return function status */
    return HAL_OK;
 800051c:	2000      	movs	r0, #0
    __HAL_CAN_ENABLE_IT(hcan, ActiveITs);
 800051e:	6953      	ldr	r3, [r2, #20]
 8000520:	4319      	orrs	r1, r3
 8000522:	6151      	str	r1, [r2, #20]
    return HAL_OK;
 8000524:	4770      	bx	lr
  }
  else
  {
    /* Update error code */
    hcan->ErrorCode |= HAL_CAN_ERROR_NOT_INITIALIZED;
 8000526:	6a43      	ldr	r3, [r0, #36]	; 0x24
 8000528:	f443 2380 	orr.w	r3, r3, #262144	; 0x40000
 800052c:	6243      	str	r3, [r0, #36]	; 0x24

    return HAL_ERROR;
 800052e:	2001      	movs	r0, #1
  }
}
 8000530:	4770      	bx	lr

08000532 <HAL_CAN_TxMailbox1CompleteCallback>:
 8000532:	4770      	bx	lr

08000534 <HAL_CAN_TxMailbox2CompleteCallback>:
 8000534:	4770      	bx	lr

08000536 <HAL_CAN_TxMailbox0AbortCallback>:
 8000536:	4770      	bx	lr

08000538 <HAL_CAN_TxMailbox1AbortCallback>:
 8000538:	4770      	bx	lr

0800053a <HAL_CAN_TxMailbox2AbortCallback>:
 800053a:	4770      	bx	lr

0800053c <HAL_CAN_RxFifo0FullCallback>:
 800053c:	4770      	bx	lr

0800053e <HAL_CAN_RxFifo1MsgPendingCallback>:
 800053e:	4770      	bx	lr

08000540 <HAL_CAN_RxFifo1FullCallback>:
 8000540:	4770      	bx	lr

08000542 <HAL_CAN_SleepCallback>:
 8000542:	4770      	bx	lr

08000544 <HAL_CAN_WakeUpFromRxMsgCallback>:
 8000544:	4770      	bx	lr

08000546 <HAL_CAN_ErrorCallback>:
  * @param  hcan pointer to a CAN_HandleTypeDef structure that contains
  *         the configuration information for the specified CAN.
  * @retval None
  */
__weak void HAL_CAN_ErrorCallback(CAN_HandleTypeDef *hcan)
{
 8000546:	4770      	bx	lr

08000548 <HAL_CAN_IRQHandler>:
{
 8000548:	e92d 4ff8 	stmdb	sp!, {r3, r4, r5, r6, r7, r8, r9, sl, fp, lr}
  uint32_t interrupts = READ_REG(hcan->Instance->IER);
 800054c:	6803      	ldr	r3, [r0, #0]
{
 800054e:	4605      	mov	r5, r0
  uint32_t interrupts = READ_REG(hcan->Instance->IER);
 8000550:	695e      	ldr	r6, [r3, #20]
  uint32_t msrflags = READ_REG(hcan->Instance->MSR);
 8000552:	f8d3 9004 	ldr.w	r9, [r3, #4]
  if ((interrupts & CAN_IT_TX_MAILBOX_EMPTY) != 0U)
 8000556:	f016 0401 	ands.w	r4, r6, #1
  uint32_t tsrflags = READ_REG(hcan->Instance->TSR);
 800055a:	689f      	ldr	r7, [r3, #8]
  uint32_t rf0rflags = READ_REG(hcan->Instance->RF0R);
 800055c:	f8d3 b00c 	ldr.w	fp, [r3, #12]
  uint32_t rf1rflags = READ_REG(hcan->Instance->RF1R);
 8000560:	f8d3 a010 	ldr.w	sl, [r3, #16]
  uint32_t esrflags = READ_REG(hcan->Instance->ESR);
 8000564:	f8d3 8018 	ldr.w	r8, [r3, #24]
  if ((interrupts & CAN_IT_TX_MAILBOX_EMPTY) != 0U)
 8000568:	d022      	beq.n	80005b0 <HAL_CAN_IRQHandler+0x68>
    if ((tsrflags & CAN_TSR_RQCP0) != 0U)
 800056a:	f017 0401 	ands.w	r4, r7, #1
 800056e:	d007      	beq.n	8000580 <HAL_CAN_IRQHandler+0x38>
      __HAL_CAN_CLEAR_FLAG(hcan, CAN_FLAG_RQCP0);
 8000570:	2201      	movs	r2, #1
      if ((tsrflags & CAN_TSR_TXOK0) != 0U)
 8000572:	07b9      	lsls	r1, r7, #30
      __HAL_CAN_CLEAR_FLAG(hcan, CAN_FLAG_RQCP0);
 8000574:	609a      	str	r2, [r3, #8]
      if ((tsrflags & CAN_TSR_TXOK0) != 0U)
 8000576:	f140 80a3 	bpl.w	80006c0 <HAL_CAN_IRQHandler+0x178>
        HAL_CAN_TxMailbox0CompleteCallback(hcan);
 800057a:	f001 fb25 	bl	8001bc8 <HAL_CAN_TxMailbox0CompleteCallback>
  uint32_t errorcode = HAL_CAN_ERROR_NONE;
 800057e:	2400      	movs	r4, #0
    if ((tsrflags & CAN_TSR_RQCP1) != 0U)
 8000580:	05fb      	lsls	r3, r7, #23
 8000582:	d509      	bpl.n	8000598 <HAL_CAN_IRQHandler+0x50>
      __HAL_CAN_CLEAR_FLAG(hcan, CAN_FLAG_RQCP1);
 8000584:	f44f 7280 	mov.w	r2, #256	; 0x100
 8000588:	682b      	ldr	r3, [r5, #0]
      if ((tsrflags & CAN_TSR_TXOK1) != 0U)
 800058a:	05b8      	lsls	r0, r7, #22
      __HAL_CAN_CLEAR_FLAG(hcan, CAN_FLAG_RQCP1);
 800058c:	609a      	str	r2, [r3, #8]
      if ((tsrflags & CAN_TSR_TXOK1) != 0U)
 800058e:	f140 80a5 	bpl.w	80006dc <HAL_CAN_IRQHandler+0x194>
        HAL_CAN_TxMailbox1CompleteCallback(hcan);
 8000592:	4628      	mov	r0, r5
 8000594:	f7ff ffcd 	bl	8000532 <HAL_CAN_TxMailbox1CompleteCallback>
    if ((tsrflags & CAN_TSR_RQCP2) != 0U)
 8000598:	03fb      	lsls	r3, r7, #15
 800059a:	d509      	bpl.n	80005b0 <HAL_CAN_IRQHandler+0x68>
      __HAL_CAN_CLEAR_FLAG(hcan, CAN_FLAG_RQCP2);
 800059c:	f44f 3280 	mov.w	r2, #65536	; 0x10000
 80005a0:	682b      	ldr	r3, [r5, #0]
      if ((tsrflags & CAN_TSR_TXOK2) != 0U)
 80005a2:	03b8      	lsls	r0, r7, #14
      __HAL_CAN_CLEAR_FLAG(hcan, CAN_FLAG_RQCP2);
 80005a4:	609a      	str	r2, [r3, #8]
      if ((tsrflags & CAN_TSR_TXOK2) != 0U)
 80005a6:	f140 80a7 	bpl.w	80006f8 <HAL_CAN_IRQHandler+0x1b0>
        HAL_CAN_TxMailbox2CompleteCallback(hcan);
 80005aa:	4628      	mov	r0, r5
 80005ac:	f7ff ffc2 	bl	8000534 <HAL_CAN_TxMailbox2CompleteCallback>
  if ((interrupts & CAN_IT_RX_FIFO0_OVERRUN) != 0U)
 80005b0:	0733      	lsls	r3, r6, #28
 80005b2:	d507      	bpl.n	80005c4 <HAL_CAN_IRQHandler+0x7c>
    if ((rf0rflags & CAN_RF0R_FOVR0) != 0U)
 80005b4:	f01b 0f10 	tst.w	fp, #16
      __HAL_CAN_CLEAR_FLAG(hcan, CAN_FLAG_FOV0);
 80005b8:	bf1f      	itttt	ne
 80005ba:	2210      	movne	r2, #16
 80005bc:	682b      	ldrne	r3, [r5, #0]
      errorcode |= HAL_CAN_ERROR_RX_FOV0;
 80005be:	f444 7400 	orrne.w	r4, r4, #512	; 0x200
      __HAL_CAN_CLEAR_FLAG(hcan, CAN_FLAG_FOV0);
 80005c2:	60da      	strne	r2, [r3, #12]
  if ((interrupts & CAN_IT_RX_FIFO0_FULL) != 0U)
 80005c4:	0777      	lsls	r7, r6, #29
 80005c6:	d508      	bpl.n	80005da <HAL_CAN_IRQHandler+0x92>
    if ((rf0rflags & CAN_RF0R_FULL0) != 0U)
 80005c8:	f01b 0f08 	tst.w	fp, #8
 80005cc:	d005      	beq.n	80005da <HAL_CAN_IRQHandler+0x92>
      __HAL_CAN_CLEAR_FLAG(hcan, CAN_FLAG_FF0);
 80005ce:	2208      	movs	r2, #8
 80005d0:	682b      	ldr	r3, [r5, #0]
      HAL_CAN_RxFifo0FullCallback(hcan);
 80005d2:	4628      	mov	r0, r5
      __HAL_CAN_CLEAR_FLAG(hcan, CAN_FLAG_FF0);
 80005d4:	60da      	str	r2, [r3, #12]
      HAL_CAN_RxFifo0FullCallback(hcan);
 80005d6:	f7ff ffb1 	bl	800053c <HAL_CAN_RxFifo0FullCallback>
  if ((interrupts & CAN_IT_RX_FIFO0_MSG_PENDING) != 0U)
 80005da:	07b0      	lsls	r0, r6, #30
 80005dc:	d506      	bpl.n	80005ec <HAL_CAN_IRQHandler+0xa4>
    if ((hcan->Instance->RF0R & CAN_RF0R_FMP0) != 0U)
 80005de:	682b      	ldr	r3, [r5, #0]
 80005e0:	68db      	ldr	r3, [r3, #12]
 80005e2:	0799      	lsls	r1, r3, #30
 80005e4:	d002      	beq.n	80005ec <HAL_CAN_IRQHandler+0xa4>
      HAL_CAN_RxFifo0MsgPendingCallback(hcan);
 80005e6:	4628      	mov	r0, r5
 80005e8:	f001 faf0 	bl	8001bcc <HAL_CAN_RxFifo0MsgPendingCallback>
  if ((interrupts & CAN_IT_RX_FIFO1_OVERRUN) != 0U)
 80005ec:	0672      	lsls	r2, r6, #25
 80005ee:	d507      	bpl.n	8000600 <HAL_CAN_IRQHandler+0xb8>
    if ((rf1rflags & CAN_RF1R_FOVR1) != 0U)
 80005f0:	f01a 0f10 	tst.w	sl, #16
      __HAL_CAN_CLEAR_FLAG(hcan, CAN_FLAG_FOV1);
 80005f4:	bf1f      	itttt	ne
 80005f6:	2210      	movne	r2, #16
 80005f8:	682b      	ldrne	r3, [r5, #0]
      errorcode |= HAL_CAN_ERROR_RX_FOV1;
 80005fa:	f444 6480 	orrne.w	r4, r4, #1024	; 0x400
      __HAL_CAN_CLEAR_FLAG(hcan, CAN_FLAG_FOV1);
 80005fe:	611a      	strne	r2, [r3, #16]
  if ((interrupts & CAN_IT_RX_FIFO1_FULL) != 0U)
 8000600:	06b3      	lsls	r3, r6, #26
 8000602:	d508      	bpl.n	8000616 <HAL_CAN_IRQHandler+0xce>
    if ((rf1rflags & CAN_RF1R_FULL1) != 0U)
 8000604:	f01a 0f08 	tst.w	sl, #8
 8000608:	d005      	beq.n	8000616 <HAL_CAN_IRQHandler+0xce>
      __HAL_CAN_CLEAR_FLAG(hcan, CAN_FLAG_FF1);
 800060a:	2208      	movs	r2, #8
 800060c:	682b      	ldr	r3, [r5, #0]
      HAL_CAN_RxFifo1FullCallback(hcan);
 800060e:	4628      	mov	r0, r5
      __HAL_CAN_CLEAR_FLAG(hcan, CAN_FLAG_FF1);
 8000610:	611a      	str	r2, [r3, #16]
      HAL_CAN_RxFifo1FullCallback(hcan);
 8000612:	f7ff ff95 	bl	8000540 <HAL_CAN_RxFifo1FullCallback>
  if ((interrupts & CAN_IT_RX_FIFO1_MSG_PENDING) != 0U)
 8000616:	06f7      	lsls	r7, r6, #27
 8000618:	d506      	bpl.n	8000628 <HAL_CAN_IRQHandler+0xe0>
    if ((hcan->Instance->RF1R & CAN_RF1R_FMP1) != 0U)
 800061a:	682b      	ldr	r3, [r5, #0]
 800061c:	691b      	ldr	r3, [r3, #16]
 800061e:	0798      	lsls	r0, r3, #30
 8000620:	d002      	beq.n	8000628 <HAL_CAN_IRQHandler+0xe0>
      HAL_CAN_RxFifo1MsgPendingCallback(hcan);
 8000622:	4628      	mov	r0, r5
 8000624:	f7ff ff8b 	bl	800053e <HAL_CAN_RxFifo1MsgPendingCallback>
  if ((interrupts & CAN_IT_SLEEP_ACK) != 0U)
 8000628:	03b1      	lsls	r1, r6, #14
 800062a:	d508      	bpl.n	800063e <HAL_CAN_IRQHandler+0xf6>
    if ((msrflags & CAN_MSR_SLAKI) != 0U)
 800062c:	f019 0f10 	tst.w	r9, #16
 8000630:	d005      	beq.n	800063e <HAL_CAN_IRQHandler+0xf6>
      __HAL_CAN_CLEAR_FLAG(hcan, CAN_FLAG_SLAKI);
 8000632:	2210      	movs	r2, #16
 8000634:	682b      	ldr	r3, [r5, #0]
      HAL_CAN_SleepCallback(hcan);
 8000636:	4628      	mov	r0, r5
      __HAL_CAN_CLEAR_FLAG(hcan, CAN_FLAG_SLAKI);
 8000638:	605a      	str	r2, [r3, #4]
      HAL_CAN_SleepCallback(hcan);
 800063a:	f7ff ff82 	bl	8000542 <HAL_CAN_SleepCallback>
  if ((interrupts & CAN_IT_WAKEUP) != 0U)
 800063e:	03f2      	lsls	r2, r6, #15
 8000640:	d508      	bpl.n	8000654 <HAL_CAN_IRQHandler+0x10c>
    if ((msrflags & CAN_MSR_WKUI) != 0U)
 8000642:	f019 0f08 	tst.w	r9, #8
 8000646:	d005      	beq.n	8000654 <HAL_CAN_IRQHandler+0x10c>
      __HAL_CAN_CLEAR_FLAG(hcan, CAN_FLAG_WKU);
 8000648:	2208      	movs	r2, #8
 800064a:	682b      	ldr	r3, [r5, #0]
      HAL_CAN_WakeUpFromRxMsgCallback(hcan);
 800064c:	4628      	mov	r0, r5
      __HAL_CAN_CLEAR_FLAG(hcan, CAN_FLAG_WKU);
 800064e:	605a      	str	r2, [r3, #4]
      HAL_CAN_WakeUpFromRxMsgCallback(hcan);
 8000650:	f7ff ff78 	bl	8000544 <HAL_CAN_WakeUpFromRxMsgCallback>
  if ((interrupts & CAN_IT_ERROR) != 0U)
 8000654:	0433      	lsls	r3, r6, #16
 8000656:	d52a      	bpl.n	80006ae <HAL_CAN_IRQHandler+0x166>
    if ((msrflags & CAN_MSR_ERRI) != 0U)
 8000658:	f019 0f04 	tst.w	r9, #4
 800065c:	682a      	ldr	r2, [r5, #0]
 800065e:	d024      	beq.n	80006aa <HAL_CAN_IRQHandler+0x162>
      if (((interrupts & CAN_IT_ERROR_WARNING) != 0U) &&
 8000660:	05f7      	lsls	r7, r6, #23
 8000662:	d504      	bpl.n	800066e <HAL_CAN_IRQHandler+0x126>
 8000664:	f018 0f01 	tst.w	r8, #1
        errorcode |= HAL_CAN_ERROR_EWG;
 8000668:	bf18      	it	ne
 800066a:	f044 0401 	orrne.w	r4, r4, #1
      if (((interrupts & CAN_IT_ERROR_PASSIVE) != 0U) &&
 800066e:	05b0      	lsls	r0, r6, #22
 8000670:	d504      	bpl.n	800067c <HAL_CAN_IRQHandler+0x134>
 8000672:	f018 0f02 	tst.w	r8, #2
        errorcode |= HAL_CAN_ERROR_EPV;
 8000676:	bf18      	it	ne
 8000678:	f044 0402 	orrne.w	r4, r4, #2
      if (((interrupts & CAN_IT_BUSOFF) != 0U) &&
 800067c:	0571      	lsls	r1, r6, #21
 800067e:	d504      	bpl.n	800068a <HAL_CAN_IRQHandler+0x142>
 8000680:	f018 0f04 	tst.w	r8, #4
        errorcode |= HAL_CAN_ERROR_BOF;
 8000684:	bf18      	it	ne
 8000686:	f044 0404 	orrne.w	r4, r4, #4
      if (((interrupts & CAN_IT_LAST_ERROR_CODE) != 0U) &&
 800068a:	0533      	lsls	r3, r6, #20
 800068c:	d50d      	bpl.n	80006aa <HAL_CAN_IRQHandler+0x162>
 800068e:	f018 0370 	ands.w	r3, r8, #112	; 0x70
 8000692:	d00a      	beq.n	80006aa <HAL_CAN_IRQHandler+0x162>
        switch (esrflags & CAN_ESR_LEC)
 8000694:	2b30      	cmp	r3, #48	; 0x30
 8000696:	d04c      	beq.n	8000732 <HAL_CAN_IRQHandler+0x1ea>
 8000698:	d83c      	bhi.n	8000714 <HAL_CAN_IRQHandler+0x1cc>
 800069a:	2b10      	cmp	r3, #16
 800069c:	d043      	beq.n	8000726 <HAL_CAN_IRQHandler+0x1de>
 800069e:	2b20      	cmp	r3, #32
 80006a0:	d044      	beq.n	800072c <HAL_CAN_IRQHandler+0x1e4>
        CLEAR_BIT(hcan->Instance->ESR, CAN_ESR_LEC);
 80006a2:	6993      	ldr	r3, [r2, #24]
 80006a4:	f023 0370 	bic.w	r3, r3, #112	; 0x70
 80006a8:	6193      	str	r3, [r2, #24]
    __HAL_CAN_CLEAR_FLAG(hcan, CAN_FLAG_ERRI);
 80006aa:	2304      	movs	r3, #4
 80006ac:	6053      	str	r3, [r2, #4]
  if (errorcode != HAL_CAN_ERROR_NONE)
 80006ae:	b12c      	cbz	r4, 80006bc <HAL_CAN_IRQHandler+0x174>
    hcan->ErrorCode |= errorcode;
 80006b0:	6a6b      	ldr	r3, [r5, #36]	; 0x24
    HAL_CAN_ErrorCallback(hcan);
 80006b2:	4628      	mov	r0, r5
    hcan->ErrorCode |= errorcode;
 80006b4:	431c      	orrs	r4, r3
 80006b6:	626c      	str	r4, [r5, #36]	; 0x24
    HAL_CAN_ErrorCallback(hcan);
 80006b8:	f7ff ff45 	bl	8000546 <HAL_CAN_ErrorCallback>
 80006bc:	e8bd 8ff8 	ldmia.w	sp!, {r3, r4, r5, r6, r7, r8, r9, sl, fp, pc}
        if ((tsrflags & CAN_TSR_ALST0) != 0U)
 80006c0:	077a      	lsls	r2, r7, #29
 80006c2:	d405      	bmi.n	80006d0 <HAL_CAN_IRQHandler+0x188>
        else if ((tsrflags & CAN_TSR_TERR0) != 0U)
 80006c4:	f017 0408 	ands.w	r4, r7, #8
 80006c8:	d105      	bne.n	80006d6 <HAL_CAN_IRQHandler+0x18e>
          HAL_CAN_TxMailbox0AbortCallback(hcan);
 80006ca:	f7ff ff34 	bl	8000536 <HAL_CAN_TxMailbox0AbortCallback>
 80006ce:	e757      	b.n	8000580 <HAL_CAN_IRQHandler+0x38>
          errorcode |= HAL_CAN_ERROR_TX_ALST0;
 80006d0:	f44f 6400 	mov.w	r4, #2048	; 0x800
 80006d4:	e754      	b.n	8000580 <HAL_CAN_IRQHandler+0x38>
          errorcode |= HAL_CAN_ERROR_TX_TERR0;
 80006d6:	f44f 5480 	mov.w	r4, #4096	; 0x1000
 80006da:	e751      	b.n	8000580 <HAL_CAN_IRQHandler+0x38>
        if ((tsrflags & CAN_TSR_ALST1) != 0U)
 80006dc:	0579      	lsls	r1, r7, #21
 80006de:	d502      	bpl.n	80006e6 <HAL_CAN_IRQHandler+0x19e>
          errorcode |= HAL_CAN_ERROR_TX_ALST1;
 80006e0:	f444 5400 	orr.w	r4, r4, #8192	; 0x2000
 80006e4:	e758      	b.n	8000598 <HAL_CAN_IRQHandler+0x50>
        else if ((tsrflags & CAN_TSR_TERR1) != 0U)
 80006e6:	053a      	lsls	r2, r7, #20
 80006e8:	d502      	bpl.n	80006f0 <HAL_CAN_IRQHandler+0x1a8>
          errorcode |= HAL_CAN_ERROR_TX_TERR1;
 80006ea:	f444 4480 	orr.w	r4, r4, #16384	; 0x4000
 80006ee:	e753      	b.n	8000598 <HAL_CAN_IRQHandler+0x50>
          HAL_CAN_TxMailbox1AbortCallback(hcan);
 80006f0:	4628      	mov	r0, r5
 80006f2:	f7ff ff21 	bl	8000538 <HAL_CAN_TxMailbox1AbortCallback>
 80006f6:	e74f      	b.n	8000598 <HAL_CAN_IRQHandler+0x50>
        if ((tsrflags & CAN_TSR_ALST2) != 0U)
 80006f8:	0379      	lsls	r1, r7, #13
 80006fa:	d502      	bpl.n	8000702 <HAL_CAN_IRQHandler+0x1ba>
          errorcode |= HAL_CAN_ERROR_TX_ALST2;
 80006fc:	f444 4400 	orr.w	r4, r4, #32768	; 0x8000
 8000700:	e756      	b.n	80005b0 <HAL_CAN_IRQHandler+0x68>
        else if ((tsrflags & CAN_TSR_TERR2) != 0U)
 8000702:	033a      	lsls	r2, r7, #12
 8000704:	d502      	bpl.n	800070c <HAL_CAN_IRQHandler+0x1c4>
          errorcode |= HAL_CAN_ERROR_TX_TERR2;
 8000706:	f444 3480 	orr.w	r4, r4, #65536	; 0x10000
 800070a:	e751      	b.n	80005b0 <HAL_CAN_IRQHandler+0x68>
          HAL_CAN_TxMailbox2AbortCallback(hcan);
 800070c:	4628      	mov	r0, r5
 800070e:	f7ff ff14 	bl	800053a <HAL_CAN_TxMailbox2AbortCallback>
 8000712:	e74d      	b.n	80005b0 <HAL_CAN_IRQHandler+0x68>
        switch (esrflags & CAN_ESR_LEC)
 8000714:	2b50      	cmp	r3, #80	; 0x50
 8000716:	d00f      	beq.n	8000738 <HAL_CAN_IRQHandler+0x1f0>
 8000718:	2b60      	cmp	r3, #96	; 0x60
 800071a:	d010      	beq.n	800073e <HAL_CAN_IRQHandler+0x1f6>
 800071c:	2b40      	cmp	r3, #64	; 0x40
 800071e:	d1c0      	bne.n	80006a2 <HAL_CAN_IRQHandler+0x15a>
            errorcode |= HAL_CAN_ERROR_BR;
 8000720:	f044 0440 	orr.w	r4, r4, #64	; 0x40
            break;
 8000724:	e7bd      	b.n	80006a2 <HAL_CAN_IRQHandler+0x15a>
            errorcode |= HAL_CAN_ERROR_STF;
 8000726:	f044 0408 	orr.w	r4, r4, #8
            break;
 800072a:	e7ba      	b.n	80006a2 <HAL_CAN_IRQHandler+0x15a>
            errorcode |= HAL_CAN_ERROR_FOR;
 800072c:	f044 0410 	orr.w	r4, r4, #16
            break;
 8000730:	e7b7      	b.n	80006a2 <HAL_CAN_IRQHandler+0x15a>
            errorcode |= HAL_CAN_ERROR_ACK;
 8000732:	f044 0420 	orr.w	r4, r4, #32
            break;
 8000736:	e7b4      	b.n	80006a2 <HAL_CAN_IRQHandler+0x15a>
            errorcode |= HAL_CAN_ERROR_BD;
 8000738:	f044 0480 	orr.w	r4, r4, #128	; 0x80
            break;
 800073c:	e7b1      	b.n	80006a2 <HAL_CAN_IRQHandler+0x15a>
            errorcode |= HAL_CAN_ERROR_CRC;
 800073e:	f444 7480 	orr.w	r4, r4, #256	; 0x100
            break;
 8000742:	e7ae      	b.n	80006a2 <HAL_CAN_IRQHandler+0x15a>

08000744 <HAL_NVIC_SetPriorityGrouping>:
__STATIC_INLINE void __NVIC_SetPriorityGrouping(uint32_t PriorityGroup)
{
  uint32_t reg_value;
  uint32_t PriorityGroupTmp = (PriorityGroup & (uint32_t)0x07UL);             /* only values 0..7 are used          */

  reg_value  =  SCB->AIRCR;                                                   /* read old register configuration    */
 8000744:	4a07      	ldr	r2, [pc, #28]	; (8000764 <HAL_NVIC_SetPriorityGrouping+0x20>)
  reg_value &= ~((uint32_t)(SCB_AIRCR_VECTKEY_Msk | SCB_AIRCR_PRIGROUP_Msk)); /* clear bits to change               */
  reg_value  =  (reg_value                                   |
                ((uint32_t)0x5FAUL << SCB_AIRCR_VECTKEY_Pos) |
                (PriorityGroupTmp << SCB_AIRCR_PRIGROUP_Pos) );               /* Insert write key and priority group */
 8000746:	0200      	lsls	r0, r0, #8
  reg_value  =  SCB->AIRCR;                                                   /* read old register configuration    */
 8000748:	68d3      	ldr	r3, [r2, #12]
                (PriorityGroupTmp << SCB_AIRCR_PRIGROUP_Pos) );               /* Insert write key and priority group */
 800074a:	f400 60e0 	and.w	r0, r0, #1792	; 0x700
  reg_value &= ~((uint32_t)(SCB_AIRCR_VECTKEY_Msk | SCB_AIRCR_PRIGROUP_Msk)); /* clear bits to change               */
 800074e:	f423 63e0 	bic.w	r3, r3, #1792	; 0x700
 8000752:	041b      	lsls	r3, r3, #16
 8000754:	0c1b      	lsrs	r3, r3, #16
 8000756:	f043 63bf 	orr.w	r3, r3, #100139008	; 0x5f80000
 800075a:	f443 3300 	orr.w	r3, r3, #131072	; 0x20000
  reg_value  =  (reg_value                                   |
 800075e:	4303      	orrs	r3, r0
  SCB->AIRCR =  reg_value;
 8000760:	60d3      	str	r3, [r2, #12]
 8000762:	4770      	bx	lr
 8000764:	e000ed00 	.word	0xe000ed00

08000768 <HAL_NVIC_SetPriority>:
  \details Reads the priority grouping field from the NVIC Interrupt Controller.
  \return                Priority grouping field (SCB->AIRCR [10:8] PRIGROUP field).
 */
__STATIC_INLINE uint32_t __NVIC_GetPriorityGrouping(void)
{
  return ((uint32_t)((SCB->AIRCR & SCB_AIRCR_PRIGROUP_Msk) >> SCB_AIRCR_PRIGROUP_Pos));
 8000768:	4b17      	ldr	r3, [pc, #92]	; (80007c8 <HAL_NVIC_SetPriority+0x60>)
  *         This parameter can be a value between 0 and 15
  *         A lower priority value indicates a higher priority.          
  * @retval None
  */
void HAL_NVIC_SetPriority(IRQn_Type IRQn, uint32_t PreemptPriority, uint32_t SubPriority)
{ 
 800076a:	b530      	push	{r4, r5, lr}
 800076c:	68dc      	ldr	r4, [r3, #12]
 800076e:	f3c4 2402 	ubfx	r4, r4, #8, #3
{
  uint32_t PriorityGroupTmp = (PriorityGroup & (uint32_t)0x07UL);   /* only values 0..7 are used          */
  uint32_t PreemptPriorityBits;
  uint32_t SubPriorityBits;

  PreemptPriorityBits = ((7UL - PriorityGroupTmp) > (uint32_t)(__NVIC_PRIO_BITS)) ? (uint32_t)(__NVIC_PRIO_BITS) : (uint32_t)(7UL - PriorityGroupTmp);
 8000772:	f1c4 0307 	rsb	r3, r4, #7
  SubPriorityBits     = ((PriorityGroupTmp + (uint32_t)(__NVIC_PRIO_BITS)) < (uint32_t)7UL) ? (uint32_t)0UL : (uint32_t)((PriorityGroupTmp - 7UL) + (uint32_t)(__NVIC_PRIO_BITS));
 8000776:	1d25      	adds	r5, r4, #4
  PreemptPriorityBits = ((7UL - PriorityGroupTmp) > (uint32_t)(__NVIC_PRIO_BITS)) ? (uint32_t)(__NVIC_PRIO_BITS) : (uint32_t)(7UL - PriorityGroupTmp);
 8000778:	2b04      	cmp	r3, #4
 800077a:	bf28      	it	cs
 800077c:	2304      	movcs	r3, #4
  SubPriorityBits     = ((PriorityGroupTmp + (uint32_t)(__NVIC_PRIO_BITS)) < (uint32_t)7UL) ? (uint32_t)0UL : (uint32_t)((PriorityGroupTmp - 7UL) + (uint32_t)(__NVIC_PRIO_BITS));
 800077e:	2d06      	cmp	r5, #6

  return (
           ((PreemptPriority & (uint32_t)((1UL << (PreemptPriorityBits)) - 1UL)) << SubPriorityBits) |
 8000780:	f04f 0501 	mov.w	r5, #1
  SubPriorityBits     = ((PriorityGroupTmp + (uint32_t)(__NVIC_PRIO_BITS)) < (uint32_t)7UL) ? (uint32_t)0UL : (uint32_t)((PriorityGroupTmp - 7UL) + (uint32_t)(__NVIC_PRIO_BITS));
 8000784:	bf98      	it	ls
 8000786:	2400      	movls	r4, #0
           ((PreemptPriority & (uint32_t)((1UL << (PreemptPriorityBits)) - 1UL)) << SubPriorityBits) |
 8000788:	fa05 f303 	lsl.w	r3, r5, r3
 800078c:	f103 33ff 	add.w	r3, r3, #4294967295	; 0xffffffff
  SubPriorityBits     = ((PriorityGroupTmp + (uint32_t)(__NVIC_PRIO_BITS)) < (uint32_t)7UL) ? (uint32_t)0UL : (uint32_t)((PriorityGroupTmp - 7UL) + (uint32_t)(__NVIC_PRIO_BITS));
 8000790:	bf88      	it	hi
 8000792:	3c03      	subhi	r4, #3
           ((PreemptPriority & (uint32_t)((1UL << (PreemptPriorityBits)) - 1UL)) << SubPriorityBits) |
 8000794:	4019      	ands	r1, r3
 8000796:	40a1      	lsls	r1, r4
           ((SubPriority     & (uint32_t)((1UL << (SubPriorityBits    )) - 1UL)))
 8000798:	fa05 f404 	lsl.w	r4, r5, r4
 800079c:	3c01      	subs	r4, #1
 800079e:	4022      	ands	r2, r4
  if ((int32_t)(IRQn) >= 0)
 80007a0:	2800      	cmp	r0, #0
           ((PreemptPriority & (uint32_t)((1UL << (PreemptPriorityBits)) - 1UL)) << SubPriorityBits) |
 80007a2:	ea42 0201 	orr.w	r2, r2, r1
 80007a6:	ea4f 1202 	mov.w	r2, r2, lsl #4
    NVIC->IP[((uint32_t)IRQn)]               = (uint8_t)((priority << (8U - __NVIC_PRIO_BITS)) & (uint32_t)0xFFUL);
 80007aa:	bfa9      	itett	ge
 80007ac:	f100 4060 	addge.w	r0, r0, #3758096384	; 0xe0000000
    SCB->SHP[(((uint32_t)IRQn) & 0xFUL)-4UL] = (uint8_t)((priority << (8U - __NVIC_PRIO_BITS)) & (uint32_t)0xFFUL);
 80007b0:	4b06      	ldrlt	r3, [pc, #24]	; (80007cc <HAL_NVIC_SetPriority+0x64>)
    NVIC->IP[((uint32_t)IRQn)]               = (uint8_t)((priority << (8U - __NVIC_PRIO_BITS)) & (uint32_t)0xFFUL);
 80007b2:	b2d2      	uxtbge	r2, r2
 80007b4:	f500 4061 	addge.w	r0, r0, #57600	; 0xe100
    SCB->SHP[(((uint32_t)IRQn) & 0xFUL)-4UL] = (uint8_t)((priority << (8U - __NVIC_PRIO_BITS)) & (uint32_t)0xFFUL);
 80007b8:	bfbb      	ittet	lt
 80007ba:	f000 000f 	andlt.w	r0, r0, #15
 80007be:	b2d2      	uxtblt	r2, r2
    NVIC->IP[((uint32_t)IRQn)]               = (uint8_t)((priority << (8U - __NVIC_PRIO_BITS)) & (uint32_t)0xFFUL);
 80007c0:	f880 2300 	strbge.w	r2, [r0, #768]	; 0x300
    SCB->SHP[(((uint32_t)IRQn) & 0xFUL)-4UL] = (uint8_t)((priority << (8U - __NVIC_PRIO_BITS)) & (uint32_t)0xFFUL);
 80007c4:	541a      	strblt	r2, [r3, r0]
 80007c6:	bd30      	pop	{r4, r5, pc}
 80007c8:	e000ed00 	.word	0xe000ed00
 80007cc:	e000ed14 	.word	0xe000ed14

080007d0 <HAL_NVIC_EnableIRQ>:
  if ((int32_t)(IRQn) >= 0)
 80007d0:	2800      	cmp	r0, #0
 80007d2:	db08      	blt.n	80007e6 <HAL_NVIC_EnableIRQ+0x16>
    NVIC->ISER[(((uint32_t)IRQn) >> 5UL)] = (uint32_t)(1UL << (((uint32_t)IRQn) & 0x1FUL));
 80007d4:	2301      	movs	r3, #1
 80007d6:	0942      	lsrs	r2, r0, #5
 80007d8:	f000 001f 	and.w	r0, r0, #31
 80007dc:	fa03 f000 	lsl.w	r0, r3, r0
 80007e0:	4b01      	ldr	r3, [pc, #4]	; (80007e8 <HAL_NVIC_EnableIRQ+0x18>)
 80007e2:	f843 0022 	str.w	r0, [r3, r2, lsl #2]
 80007e6:	4770      	bx	lr
 80007e8:	e000e100 	.word	0xe000e100

080007ec <HAL_SYSTICK_Config>:
           function <b>SysTick_Config</b> is not included. In this case, the file <b><i>device</i>.h</b>
           must contain a vendor-specific implementation of this function.
 */
__STATIC_INLINE uint32_t SysTick_Config(uint32_t ticks)
{
  if ((ticks - 1UL) > SysTick_LOAD_RELOAD_Msk)
 80007ec:	3801      	subs	r0, #1
 80007ee:	f1b0 7f80 	cmp.w	r0, #16777216	; 0x1000000
 80007f2:	d20a      	bcs.n	800080a <HAL_SYSTICK_Config+0x1e>
    SCB->SHP[(((uint32_t)IRQn) & 0xFUL)-4UL] = (uint8_t)((priority << (8U - __NVIC_PRIO_BITS)) & (uint32_t)0xFFUL);
 80007f4:	21f0      	movs	r1, #240	; 0xf0
  {
    return (1UL);                                                   /* Reload value impossible */
  }

  SysTick->LOAD  = (uint32_t)(ticks - 1UL);                         /* set reload register */
 80007f6:	4b06      	ldr	r3, [pc, #24]	; (8000810 <HAL_SYSTICK_Config+0x24>)
    SCB->SHP[(((uint32_t)IRQn) & 0xFUL)-4UL] = (uint8_t)((priority << (8U - __NVIC_PRIO_BITS)) & (uint32_t)0xFFUL);
 80007f8:	4a06      	ldr	r2, [pc, #24]	; (8000814 <HAL_SYSTICK_Config+0x28>)
  SysTick->LOAD  = (uint32_t)(ticks - 1UL);                         /* set reload register */
 80007fa:	6058      	str	r0, [r3, #4]
    SCB->SHP[(((uint32_t)IRQn) & 0xFUL)-4UL] = (uint8_t)((priority << (8U - __NVIC_PRIO_BITS)) & (uint32_t)0xFFUL);
 80007fc:	f882 1023 	strb.w	r1, [r2, #35]	; 0x23
  NVIC_SetPriority (SysTick_IRQn, (1UL << __NVIC_PRIO_BITS) - 1UL); /* set Priority for Systick Interrupt */
  SysTick->VAL   = 0UL;                                             /* Load the SysTick Counter Value */
 8000800:	2000      	movs	r0, #0
  SysTick->CTRL  = SysTick_CTRL_CLKSOURCE_Msk |
 8000802:	2207      	movs	r2, #7
  SysTick->VAL   = 0UL;                                             /* Load the SysTick Counter Value */
 8000804:	6098      	str	r0, [r3, #8]
  SysTick->CTRL  = SysTick_CTRL_CLKSOURCE_Msk |
 8000806:	601a      	str	r2, [r3, #0]
 8000808:	4770      	bx	lr
    return (1UL);                                                   /* Reload value impossible */
 800080a:	2001      	movs	r0, #1
  *                  - 1  Function failed.
  */
uint32_t HAL_SYSTICK_Config(uint32_t TicksNumb)
{
   return SysTick_Config(TicksNumb);
}
 800080c:	4770      	bx	lr
 800080e:	bf00      	nop
 8000810:	e000e010 	.word	0xe000e010
 8000814:	e000ed00 	.word	0xe000ed00

08000818 <HAL_GPIO_Init>:
  * @param  GPIO_Init: pointer to a GPIO_InitTypeDef structure that contains
  *         the configuration information for the specified GPIO peripheral.
  * @retval None
  */
void HAL_GPIO_Init(GPIO_TypeDef  *GPIOx, GPIO_InitTypeDef *GPIO_Init)
{
 8000818:	e92d 4ff7 	stmdb	sp!, {r0, r1, r2, r4, r5, r6, r7, r8, r9, sl, fp, lr}
  uint32_t position = 0x00u;
  uint32_t ioposition;
  uint32_t iocurrent;
  uint32_t temp;
  uint32_t config = 0x00u;
 800081c:	2400      	movs	r4, #0
  uint32_t position = 0x00u;
 800081e:	4626      	mov	r6, r4
 8000820:	4b66      	ldr	r3, [pc, #408]	; (80009bc <HAL_GPIO_Init+0x1a4>)
    {
      /* Check the Alternate function parameters */
      assert_param(IS_GPIO_AF_INSTANCE(GPIOx));

      /* Based on the required mode, filling config variable with MODEy[1:0] and CNFy[3:2] corresponding bits */
      switch (GPIO_Init->Mode)
 8000822:	f8df e1a8 	ldr.w	lr, [pc, #424]	; 80009cc <HAL_GPIO_Init+0x1b4>
 8000826:	f8df c1a8 	ldr.w	ip, [pc, #424]	; 80009d0 <HAL_GPIO_Init+0x1b8>
  while (((GPIO_Init->Pin) >> position) != 0x00u)
 800082a:	680a      	ldr	r2, [r1, #0]
 800082c:	fa32 f506 	lsrs.w	r5, r2, r6
 8000830:	d102      	bne.n	8000838 <HAL_GPIO_Init+0x20>
      }
    }

	position++;
  }
}
 8000832:	b003      	add	sp, #12
 8000834:	e8bd 8ff0 	ldmia.w	sp!, {r4, r5, r6, r7, r8, r9, sl, fp, pc}
    ioposition = (0x01uL << position);
 8000838:	f04f 0801 	mov.w	r8, #1
 800083c:	fa08 f806 	lsl.w	r8, r8, r6
    iocurrent = (uint32_t)(GPIO_Init->Pin) & ioposition;
 8000840:	ea02 0208 	and.w	r2, r2, r8
    if (iocurrent == ioposition)
 8000844:	4590      	cmp	r8, r2
 8000846:	d17f      	bne.n	8000948 <HAL_GPIO_Init+0x130>
      switch (GPIO_Init->Mode)
 8000848:	684d      	ldr	r5, [r1, #4]
 800084a:	2d12      	cmp	r5, #18
 800084c:	f000 80aa 	beq.w	80009a4 <HAL_GPIO_Init+0x18c>
 8000850:	f200 8083 	bhi.w	800095a <HAL_GPIO_Init+0x142>
 8000854:	2d02      	cmp	r5, #2
 8000856:	f000 80a2 	beq.w	800099e <HAL_GPIO_Init+0x186>
 800085a:	d877      	bhi.n	800094c <HAL_GPIO_Init+0x134>
 800085c:	2d00      	cmp	r5, #0
 800085e:	f000 8089 	beq.w	8000974 <HAL_GPIO_Init+0x15c>
 8000862:	2d01      	cmp	r5, #1
 8000864:	f000 8099 	beq.w	800099a <HAL_GPIO_Init+0x182>
      MODIFY_REG((*configregister), ((GPIO_CRL_MODE0 | GPIO_CRL_CNF0) << registeroffset), (config << registeroffset));
 8000868:	f04f 090f 	mov.w	r9, #15
      configregister = (iocurrent < GPIO_PIN_8) ? &GPIOx->CRL     : &GPIOx->CRH;
 800086c:	2aff      	cmp	r2, #255	; 0xff
 800086e:	bf93      	iteet	ls
 8000870:	4682      	movls	sl, r0
 8000872:	f106 4580 	addhi.w	r5, r6, #1073741824	; 0x40000000
 8000876:	3d08      	subhi	r5, #8
 8000878:	f8d0 b000 	ldrls.w	fp, [r0]
 800087c:	bf92      	itee	ls
 800087e:	00b5      	lslls	r5, r6, #2
 8000880:	f8d0 b004 	ldrhi.w	fp, [r0, #4]
 8000884:	00ad      	lslhi	r5, r5, #2
      MODIFY_REG((*configregister), ((GPIO_CRL_MODE0 | GPIO_CRL_CNF0) << registeroffset), (config << registeroffset));
 8000886:	fa09 f805 	lsl.w	r8, r9, r5
 800088a:	ea2b 0808 	bic.w	r8, fp, r8
 800088e:	fa04 f505 	lsl.w	r5, r4, r5
      configregister = (iocurrent < GPIO_PIN_8) ? &GPIOx->CRL     : &GPIOx->CRH;
 8000892:	bf88      	it	hi
 8000894:	f100 0a04 	addhi.w	sl, r0, #4
      MODIFY_REG((*configregister), ((GPIO_CRL_MODE0 | GPIO_CRL_CNF0) << registeroffset), (config << registeroffset));
 8000898:	ea48 0505 	orr.w	r5, r8, r5
 800089c:	f8ca 5000 	str.w	r5, [sl]
      if ((GPIO_Init->Mode & EXTI_MODE) == EXTI_MODE)
 80008a0:	f8d1 a004 	ldr.w	sl, [r1, #4]
 80008a4:	f01a 5f80 	tst.w	sl, #268435456	; 0x10000000
 80008a8:	d04e      	beq.n	8000948 <HAL_GPIO_Init+0x130>
        __HAL_RCC_AFIO_CLK_ENABLE();
 80008aa:	4d45      	ldr	r5, [pc, #276]	; (80009c0 <HAL_GPIO_Init+0x1a8>)
 80008ac:	4f44      	ldr	r7, [pc, #272]	; (80009c0 <HAL_GPIO_Init+0x1a8>)
 80008ae:	69ad      	ldr	r5, [r5, #24]
 80008b0:	f026 0803 	bic.w	r8, r6, #3
 80008b4:	f045 0501 	orr.w	r5, r5, #1
 80008b8:	61bd      	str	r5, [r7, #24]
 80008ba:	69bd      	ldr	r5, [r7, #24]
 80008bc:	f108 4880 	add.w	r8, r8, #1073741824	; 0x40000000
 80008c0:	f005 0501 	and.w	r5, r5, #1
 80008c4:	9501      	str	r5, [sp, #4]
 80008c6:	f508 3880 	add.w	r8, r8, #65536	; 0x10000
        CLEAR_BIT(temp, (0x0Fu) << (4u * (position & 0x03u)));
 80008ca:	f006 0b03 	and.w	fp, r6, #3
        __HAL_RCC_AFIO_CLK_ENABLE();
 80008ce:	9d01      	ldr	r5, [sp, #4]
        CLEAR_BIT(temp, (0x0Fu) << (4u * (position & 0x03u)));
 80008d0:	ea4f 0b8b 	mov.w	fp, fp, lsl #2
        temp = AFIO->EXTICR[position >> 2u];
 80008d4:	f8d8 5008 	ldr.w	r5, [r8, #8]
        CLEAR_BIT(temp, (0x0Fu) << (4u * (position & 0x03u)));
 80008d8:	fa09 f90b 	lsl.w	r9, r9, fp
 80008dc:	ea25 0909 	bic.w	r9, r5, r9
        SET_BIT(temp, (GPIO_GET_INDEX(GPIOx)) << (4u * (position & 0x03u)));
 80008e0:	4d38      	ldr	r5, [pc, #224]	; (80009c4 <HAL_GPIO_Init+0x1ac>)
 80008e2:	42a8      	cmp	r0, r5
 80008e4:	d063      	beq.n	80009ae <HAL_GPIO_Init+0x196>
 80008e6:	f505 6580 	add.w	r5, r5, #1024	; 0x400
 80008ea:	42a8      	cmp	r0, r5
 80008ec:	d061      	beq.n	80009b2 <HAL_GPIO_Init+0x19a>
 80008ee:	f505 6580 	add.w	r5, r5, #1024	; 0x400
 80008f2:	42a8      	cmp	r0, r5
 80008f4:	d05f      	beq.n	80009b6 <HAL_GPIO_Init+0x19e>
 80008f6:	f505 6580 	add.w	r5, r5, #1024	; 0x400
 80008fa:	42a8      	cmp	r0, r5
 80008fc:	bf0c      	ite	eq
 80008fe:	2503      	moveq	r5, #3
 8000900:	2504      	movne	r5, #4
 8000902:	fa05 f50b 	lsl.w	r5, r5, fp
 8000906:	ea45 0509 	orr.w	r5, r5, r9
        AFIO->EXTICR[position >> 2u] = temp;
 800090a:	f8c8 5008 	str.w	r5, [r8, #8]
          SET_BIT(EXTI->IMR, iocurrent);
 800090e:	681d      	ldr	r5, [r3, #0]
        if ((GPIO_Init->Mode & GPIO_MODE_IT) == GPIO_MODE_IT)
 8000910:	f41a 3f80 	tst.w	sl, #65536	; 0x10000
          SET_BIT(EXTI->IMR, iocurrent);
 8000914:	bf14      	ite	ne
 8000916:	4315      	orrne	r5, r2
          CLEAR_BIT(EXTI->IMR, iocurrent);
 8000918:	4395      	biceq	r5, r2
 800091a:	601d      	str	r5, [r3, #0]
          SET_BIT(EXTI->EMR, iocurrent);
 800091c:	685d      	ldr	r5, [r3, #4]
        if ((GPIO_Init->Mode & GPIO_MODE_EVT) == GPIO_MODE_EVT)
 800091e:	f41a 3f00 	tst.w	sl, #131072	; 0x20000
          SET_BIT(EXTI->EMR, iocurrent);
 8000922:	bf14      	ite	ne
 8000924:	4315      	orrne	r5, r2
          CLEAR_BIT(EXTI->EMR, iocurrent);
 8000926:	4395      	biceq	r5, r2
 8000928:	605d      	str	r5, [r3, #4]
          SET_BIT(EXTI->RTSR, iocurrent);
 800092a:	689d      	ldr	r5, [r3, #8]
        if ((GPIO_Init->Mode & RISING_EDGE) == RISING_EDGE)
 800092c:	f41a 1f80 	tst.w	sl, #1048576	; 0x100000
          SET_BIT(EXTI->RTSR, iocurrent);
 8000930:	bf14      	ite	ne
 8000932:	4315      	orrne	r5, r2
          CLEAR_BIT(EXTI->RTSR, iocurrent);
 8000934:	4395      	biceq	r5, r2
 8000936:	609d      	str	r5, [r3, #8]
          SET_BIT(EXTI->FTSR, iocurrent);
 8000938:	68dd      	ldr	r5, [r3, #12]
        if ((GPIO_Init->Mode & FALLING_EDGE) == FALLING_EDGE)
 800093a:	f41a 1f00 	tst.w	sl, #2097152	; 0x200000
          SET_BIT(EXTI->FTSR, iocurrent);
 800093e:	bf14      	ite	ne
 8000940:	432a      	orrne	r2, r5
          CLEAR_BIT(EXTI->FTSR, iocurrent);
 8000942:	ea25 0202 	biceq.w	r2, r5, r2
 8000946:	60da      	str	r2, [r3, #12]
	position++;
 8000948:	3601      	adds	r6, #1
 800094a:	e76e      	b.n	800082a <HAL_GPIO_Init+0x12>
      switch (GPIO_Init->Mode)
 800094c:	2d03      	cmp	r5, #3
 800094e:	d022      	beq.n	8000996 <HAL_GPIO_Init+0x17e>
 8000950:	2d11      	cmp	r5, #17
 8000952:	d189      	bne.n	8000868 <HAL_GPIO_Init+0x50>
          config = GPIO_Init->Speed + GPIO_CR_CNF_GP_OUTPUT_OD;
 8000954:	68cc      	ldr	r4, [r1, #12]
 8000956:	3404      	adds	r4, #4
          break;
 8000958:	e786      	b.n	8000868 <HAL_GPIO_Init+0x50>
      switch (GPIO_Init->Mode)
 800095a:	4f1b      	ldr	r7, [pc, #108]	; (80009c8 <HAL_GPIO_Init+0x1b0>)
 800095c:	42bd      	cmp	r5, r7
 800095e:	d009      	beq.n	8000974 <HAL_GPIO_Init+0x15c>
 8000960:	d812      	bhi.n	8000988 <HAL_GPIO_Init+0x170>
 8000962:	f8df 9070 	ldr.w	r9, [pc, #112]	; 80009d4 <HAL_GPIO_Init+0x1bc>
 8000966:	454d      	cmp	r5, r9
 8000968:	d004      	beq.n	8000974 <HAL_GPIO_Init+0x15c>
 800096a:	f509 3980 	add.w	r9, r9, #65536	; 0x10000
 800096e:	454d      	cmp	r5, r9
 8000970:	f47f af7a 	bne.w	8000868 <HAL_GPIO_Init+0x50>
          if (GPIO_Init->Pull == GPIO_NOPULL)
 8000974:	688c      	ldr	r4, [r1, #8]
 8000976:	b1c4      	cbz	r4, 80009aa <HAL_GPIO_Init+0x192>
          else if (GPIO_Init->Pull == GPIO_PULLUP)
 8000978:	2c01      	cmp	r4, #1
            GPIOx->BSRR = ioposition;
 800097a:	bf0c      	ite	eq
 800097c:	f8c0 8010 	streq.w	r8, [r0, #16]
            GPIOx->BRR = ioposition;
 8000980:	f8c0 8014 	strne.w	r8, [r0, #20]
            config = GPIO_CR_MODE_INPUT + GPIO_CR_CNF_INPUT_PU_PD;
 8000984:	2408      	movs	r4, #8
 8000986:	e76f      	b.n	8000868 <HAL_GPIO_Init+0x50>
      switch (GPIO_Init->Mode)
 8000988:	4575      	cmp	r5, lr
 800098a:	d0f3      	beq.n	8000974 <HAL_GPIO_Init+0x15c>
 800098c:	4565      	cmp	r5, ip
 800098e:	d0f1      	beq.n	8000974 <HAL_GPIO_Init+0x15c>
 8000990:	f8df 9044 	ldr.w	r9, [pc, #68]	; 80009d8 <HAL_GPIO_Init+0x1c0>
 8000994:	e7eb      	b.n	800096e <HAL_GPIO_Init+0x156>
          config = GPIO_CR_MODE_INPUT + GPIO_CR_CNF_ANALOG;
 8000996:	2400      	movs	r4, #0
 8000998:	e766      	b.n	8000868 <HAL_GPIO_Init+0x50>
          config = GPIO_Init->Speed + GPIO_CR_CNF_GP_OUTPUT_PP;
 800099a:	68cc      	ldr	r4, [r1, #12]
          break;
 800099c:	e764      	b.n	8000868 <HAL_GPIO_Init+0x50>
          config = GPIO_Init->Speed + GPIO_CR_CNF_AF_OUTPUT_PP;
 800099e:	68cc      	ldr	r4, [r1, #12]
 80009a0:	3408      	adds	r4, #8
          break;
 80009a2:	e761      	b.n	8000868 <HAL_GPIO_Init+0x50>
          config = GPIO_Init->Speed + GPIO_CR_CNF_AF_OUTPUT_OD;
 80009a4:	68cc      	ldr	r4, [r1, #12]
 80009a6:	340c      	adds	r4, #12
          break;
 80009a8:	e75e      	b.n	8000868 <HAL_GPIO_Init+0x50>
            config = GPIO_CR_MODE_INPUT + GPIO_CR_CNF_INPUT_FLOATING;
 80009aa:	2404      	movs	r4, #4
 80009ac:	e75c      	b.n	8000868 <HAL_GPIO_Init+0x50>
        SET_BIT(temp, (GPIO_GET_INDEX(GPIOx)) << (4u * (position & 0x03u)));
 80009ae:	2500      	movs	r5, #0
 80009b0:	e7a7      	b.n	8000902 <HAL_GPIO_Init+0xea>
 80009b2:	2501      	movs	r5, #1
 80009b4:	e7a5      	b.n	8000902 <HAL_GPIO_Init+0xea>
 80009b6:	2502      	movs	r5, #2
 80009b8:	e7a3      	b.n	8000902 <HAL_GPIO_Init+0xea>
 80009ba:	bf00      	nop
 80009bc:	40010400 	.word	0x40010400
 80009c0:	40021000 	.word	0x40021000
 80009c4:	40010800 	.word	0x40010800
 80009c8:	10210000 	.word	0x10210000
 80009cc:	10310000 	.word	0x10310000
 80009d0:	10320000 	.word	0x10320000
 80009d4:	10110000 	.word	0x10110000
 80009d8:	10220000 	.word	0x10220000

080009dc <HAL_GPIO_ReadPin>:
  GPIO_PinState bitstatus;

  /* Check the parameters */
  assert_param(IS_GPIO_PIN(GPIO_Pin));

  if ((GPIOx->IDR & GPIO_Pin) != (uint32_t)GPIO_PIN_RESET)
 80009dc:	6883      	ldr	r3, [r0, #8]
 80009de:	4219      	tst	r1, r3
  else
  {
    bitstatus = GPIO_PIN_RESET;
  }
  return bitstatus;
}
 80009e0:	bf14      	ite	ne
 80009e2:	2001      	movne	r0, #1
 80009e4:	2000      	moveq	r0, #0
 80009e6:	4770      	bx	lr

080009e8 <HAL_GPIO_WritePin>:
{
  /* Check the parameters */
  assert_param(IS_GPIO_PIN(GPIO_Pin));
  assert_param(IS_GPIO_PIN_ACTION(PinState));

  if (PinState != GPIO_PIN_RESET)
 80009e8:	b10a      	cbz	r2, 80009ee <HAL_GPIO_WritePin+0x6>
  {
    GPIOx->BSRR = GPIO_Pin;
  }
  else
  {
    GPIOx->BSRR = (uint32_t)GPIO_Pin << 16u;
 80009ea:	6101      	str	r1, [r0, #16]
 80009ec:	4770      	bx	lr
 80009ee:	0409      	lsls	r1, r1, #16
 80009f0:	e7fb      	b.n	80009ea <HAL_GPIO_WritePin+0x2>

080009f2 <HAL_GPIO_TogglePin>:
void HAL_GPIO_TogglePin(GPIO_TypeDef *GPIOx, uint16_t GPIO_Pin)
{
  /* Check the parameters */
  assert_param(IS_GPIO_PIN(GPIO_Pin));

  if ((GPIOx->ODR & GPIO_Pin) != 0x00u)
 80009f2:	68c3      	ldr	r3, [r0, #12]
 80009f4:	420b      	tst	r3, r1
  {
    GPIOx->BRR = (uint32_t)GPIO_Pin;
 80009f6:	bf14      	ite	ne
 80009f8:	6141      	strne	r1, [r0, #20]
  }
  else
  {
    GPIOx->BSRR = (uint32_t)GPIO_Pin;
 80009fa:	6101      	streq	r1, [r0, #16]
 80009fc:	4770      	bx	lr
	...

08000a00 <HAL_RCC_OscConfig>:
  *         supported by this macro. User should request a transition to HSE Off
  *         first and then HSE On or HSE Bypass.
  * @retval HAL status
  */
HAL_StatusTypeDef HAL_RCC_OscConfig(RCC_OscInitTypeDef  *RCC_OscInitStruct)
{
 8000a00:	e92d 41f3 	stmdb	sp!, {r0, r1, r4, r5, r6, r7, r8, lr}
  uint32_t tickstart;
  uint32_t pll_config;

  /* Check Null pointer */
  if (RCC_OscInitStruct == NULL)
 8000a04:	4605      	mov	r5, r0
 8000a06:	b908      	cbnz	r0, 8000a0c <HAL_RCC_OscConfig+0xc>
    else
    {
      /* Check if there is a request to disable the PLL used as System clock source */
      if ((RCC_OscInitStruct->PLL.PLLState) == RCC_PLL_OFF)
      {
        return HAL_ERROR;
 8000a08:	2001      	movs	r0, #1
 8000a0a:	e03c      	b.n	8000a86 <HAL_RCC_OscConfig+0x86>
  if (((RCC_OscInitStruct->OscillatorType) & RCC_OSCILLATORTYPE_HSE) == RCC_OSCILLATORTYPE_HSE)
 8000a0c:	6803      	ldr	r3, [r0, #0]
 8000a0e:	07db      	lsls	r3, r3, #31
 8000a10:	d410      	bmi.n	8000a34 <HAL_RCC_OscConfig+0x34>
  if (((RCC_OscInitStruct->OscillatorType) & RCC_OSCILLATORTYPE_HSI) == RCC_OSCILLATORTYPE_HSI)
 8000a12:	682b      	ldr	r3, [r5, #0]
 8000a14:	079f      	lsls	r7, r3, #30
 8000a16:	d45d      	bmi.n	8000ad4 <HAL_RCC_OscConfig+0xd4>
  if (((RCC_OscInitStruct->OscillatorType) & RCC_OSCILLATORTYPE_LSI) == RCC_OSCILLATORTYPE_LSI)
 8000a18:	682b      	ldr	r3, [r5, #0]
 8000a1a:	0719      	lsls	r1, r3, #28
 8000a1c:	f100 8094 	bmi.w	8000b48 <HAL_RCC_OscConfig+0x148>
  if (((RCC_OscInitStruct->OscillatorType) & RCC_OSCILLATORTYPE_LSE) == RCC_OSCILLATORTYPE_LSE)
 8000a20:	682b      	ldr	r3, [r5, #0]
 8000a22:	075a      	lsls	r2, r3, #29
 8000a24:	f100 80be 	bmi.w	8000ba4 <HAL_RCC_OscConfig+0x1a4>
  if ((RCC_OscInitStruct->PLL.PLLState) != RCC_PLL_NONE)
 8000a28:	69e8      	ldr	r0, [r5, #28]
 8000a2a:	2800      	cmp	r0, #0
 8000a2c:	f040 812c 	bne.w	8000c88 <HAL_RCC_OscConfig+0x288>
        }
      }
    }
  }

  return HAL_OK;
 8000a30:	2000      	movs	r0, #0
 8000a32:	e028      	b.n	8000a86 <HAL_RCC_OscConfig+0x86>
    if ((__HAL_RCC_GET_SYSCLK_SOURCE() == RCC_SYSCLKSOURCE_STATUS_HSE)
 8000a34:	4c8f      	ldr	r4, [pc, #572]	; (8000c74 <HAL_RCC_OscConfig+0x274>)
 8000a36:	6863      	ldr	r3, [r4, #4]
 8000a38:	f003 030c 	and.w	r3, r3, #12
 8000a3c:	2b04      	cmp	r3, #4
 8000a3e:	d007      	beq.n	8000a50 <HAL_RCC_OscConfig+0x50>
        || ((__HAL_RCC_GET_SYSCLK_SOURCE() == RCC_SYSCLKSOURCE_STATUS_PLLCLK) && (__HAL_RCC_GET_PLL_OSCSOURCE() == RCC_PLLSOURCE_HSE)))
 8000a40:	6863      	ldr	r3, [r4, #4]
 8000a42:	f003 030c 	and.w	r3, r3, #12
 8000a46:	2b08      	cmp	r3, #8
 8000a48:	d109      	bne.n	8000a5e <HAL_RCC_OscConfig+0x5e>
 8000a4a:	6863      	ldr	r3, [r4, #4]
 8000a4c:	03de      	lsls	r6, r3, #15
 8000a4e:	d506      	bpl.n	8000a5e <HAL_RCC_OscConfig+0x5e>
      if ((__HAL_RCC_GET_FLAG(RCC_FLAG_HSERDY) != RESET) && (RCC_OscInitStruct->HSEState == RCC_HSE_OFF))
 8000a50:	6823      	ldr	r3, [r4, #0]
 8000a52:	039c      	lsls	r4, r3, #14
 8000a54:	d5dd      	bpl.n	8000a12 <HAL_RCC_OscConfig+0x12>
 8000a56:	686b      	ldr	r3, [r5, #4]
 8000a58:	2b00      	cmp	r3, #0
 8000a5a:	d1da      	bne.n	8000a12 <HAL_RCC_OscConfig+0x12>
 8000a5c:	e7d4      	b.n	8000a08 <HAL_RCC_OscConfig+0x8>
      __HAL_RCC_HSE_CONFIG(RCC_OscInitStruct->HSEState);
 8000a5e:	686b      	ldr	r3, [r5, #4]
 8000a60:	f5b3 3f80 	cmp.w	r3, #65536	; 0x10000
 8000a64:	d112      	bne.n	8000a8c <HAL_RCC_OscConfig+0x8c>
 8000a66:	6823      	ldr	r3, [r4, #0]
 8000a68:	f443 3380 	orr.w	r3, r3, #65536	; 0x10000
 8000a6c:	6023      	str	r3, [r4, #0]
        tickstart = HAL_GetTick();
 8000a6e:	f7ff fbaf 	bl	80001d0 <HAL_GetTick>
 8000a72:	4606      	mov	r6, r0
        while (__HAL_RCC_GET_FLAG(RCC_FLAG_HSERDY) == RESET)
 8000a74:	6823      	ldr	r3, [r4, #0]
 8000a76:	0398      	lsls	r0, r3, #14
 8000a78:	d4cb      	bmi.n	8000a12 <HAL_RCC_OscConfig+0x12>
          if ((HAL_GetTick() - tickstart) > HSE_TIMEOUT_VALUE)
 8000a7a:	f7ff fba9 	bl	80001d0 <HAL_GetTick>
 8000a7e:	1b80      	subs	r0, r0, r6
 8000a80:	2864      	cmp	r0, #100	; 0x64
 8000a82:	d9f7      	bls.n	8000a74 <HAL_RCC_OscConfig+0x74>
            return HAL_TIMEOUT;
 8000a84:	2003      	movs	r0, #3
}
 8000a86:	b002      	add	sp, #8
 8000a88:	e8bd 81f0 	ldmia.w	sp!, {r4, r5, r6, r7, r8, pc}
      __HAL_RCC_HSE_CONFIG(RCC_OscInitStruct->HSEState);
 8000a8c:	b99b      	cbnz	r3, 8000ab6 <HAL_RCC_OscConfig+0xb6>
 8000a8e:	6823      	ldr	r3, [r4, #0]
 8000a90:	f423 3380 	bic.w	r3, r3, #65536	; 0x10000
 8000a94:	6023      	str	r3, [r4, #0]
 8000a96:	6823      	ldr	r3, [r4, #0]
 8000a98:	f423 2380 	bic.w	r3, r3, #262144	; 0x40000
 8000a9c:	6023      	str	r3, [r4, #0]
        tickstart = HAL_GetTick();
 8000a9e:	f7ff fb97 	bl	80001d0 <HAL_GetTick>
 8000aa2:	4606      	mov	r6, r0
        while (__HAL_RCC_GET_FLAG(RCC_FLAG_HSERDY) != RESET)
 8000aa4:	6823      	ldr	r3, [r4, #0]
 8000aa6:	0399      	lsls	r1, r3, #14
 8000aa8:	d5b3      	bpl.n	8000a12 <HAL_RCC_OscConfig+0x12>
          if ((HAL_GetTick() - tickstart) > HSE_TIMEOUT_VALUE)
 8000aaa:	f7ff fb91 	bl	80001d0 <HAL_GetTick>
 8000aae:	1b80      	subs	r0, r0, r6
 8000ab0:	2864      	cmp	r0, #100	; 0x64
 8000ab2:	d9f7      	bls.n	8000aa4 <HAL_RCC_OscConfig+0xa4>
 8000ab4:	e7e6      	b.n	8000a84 <HAL_RCC_OscConfig+0x84>
      __HAL_RCC_HSE_CONFIG(RCC_OscInitStruct->HSEState);
 8000ab6:	f5b3 2fa0 	cmp.w	r3, #327680	; 0x50000
 8000aba:	6823      	ldr	r3, [r4, #0]
 8000abc:	d103      	bne.n	8000ac6 <HAL_RCC_OscConfig+0xc6>
 8000abe:	f443 2380 	orr.w	r3, r3, #262144	; 0x40000
 8000ac2:	6023      	str	r3, [r4, #0]
 8000ac4:	e7cf      	b.n	8000a66 <HAL_RCC_OscConfig+0x66>
 8000ac6:	f423 3380 	bic.w	r3, r3, #65536	; 0x10000
 8000aca:	6023      	str	r3, [r4, #0]
 8000acc:	6823      	ldr	r3, [r4, #0]
 8000ace:	f423 2380 	bic.w	r3, r3, #262144	; 0x40000
 8000ad2:	e7cb      	b.n	8000a6c <HAL_RCC_OscConfig+0x6c>
    if ((__HAL_RCC_GET_SYSCLK_SOURCE() == RCC_SYSCLKSOURCE_STATUS_HSI)
 8000ad4:	4c67      	ldr	r4, [pc, #412]	; (8000c74 <HAL_RCC_OscConfig+0x274>)
 8000ad6:	6863      	ldr	r3, [r4, #4]
 8000ad8:	f013 0f0c 	tst.w	r3, #12
 8000adc:	d007      	beq.n	8000aee <HAL_RCC_OscConfig+0xee>
        || ((__HAL_RCC_GET_SYSCLK_SOURCE() == RCC_SYSCLKSOURCE_STATUS_PLLCLK) && (__HAL_RCC_GET_PLL_OSCSOURCE() == RCC_PLLSOURCE_HSI_DIV2)))
 8000ade:	6863      	ldr	r3, [r4, #4]
 8000ae0:	f003 030c 	and.w	r3, r3, #12
 8000ae4:	2b08      	cmp	r3, #8
 8000ae6:	d110      	bne.n	8000b0a <HAL_RCC_OscConfig+0x10a>
 8000ae8:	6863      	ldr	r3, [r4, #4]
 8000aea:	03da      	lsls	r2, r3, #15
 8000aec:	d40d      	bmi.n	8000b0a <HAL_RCC_OscConfig+0x10a>
      if ((__HAL_RCC_GET_FLAG(RCC_FLAG_HSIRDY) != RESET) && (RCC_OscInitStruct->HSIState != RCC_HSI_ON))
 8000aee:	6823      	ldr	r3, [r4, #0]
 8000af0:	079b      	lsls	r3, r3, #30
 8000af2:	d502      	bpl.n	8000afa <HAL_RCC_OscConfig+0xfa>
 8000af4:	692b      	ldr	r3, [r5, #16]
 8000af6:	2b01      	cmp	r3, #1
 8000af8:	d186      	bne.n	8000a08 <HAL_RCC_OscConfig+0x8>
        __HAL_RCC_HSI_CALIBRATIONVALUE_ADJUST(RCC_OscInitStruct->HSICalibrationValue);
 8000afa:	6823      	ldr	r3, [r4, #0]
 8000afc:	696a      	ldr	r2, [r5, #20]
 8000afe:	f023 03f8 	bic.w	r3, r3, #248	; 0xf8
 8000b02:	ea43 03c2 	orr.w	r3, r3, r2, lsl #3
 8000b06:	6023      	str	r3, [r4, #0]
 8000b08:	e786      	b.n	8000a18 <HAL_RCC_OscConfig+0x18>
      if (RCC_OscInitStruct->HSIState != RCC_HSI_OFF)
 8000b0a:	692a      	ldr	r2, [r5, #16]
 8000b0c:	4b5a      	ldr	r3, [pc, #360]	; (8000c78 <HAL_RCC_OscConfig+0x278>)
 8000b0e:	b16a      	cbz	r2, 8000b2c <HAL_RCC_OscConfig+0x12c>
        __HAL_RCC_HSI_ENABLE();
 8000b10:	2201      	movs	r2, #1
 8000b12:	601a      	str	r2, [r3, #0]
        tickstart = HAL_GetTick();
 8000b14:	f7ff fb5c 	bl	80001d0 <HAL_GetTick>
 8000b18:	4606      	mov	r6, r0
        while (__HAL_RCC_GET_FLAG(RCC_FLAG_HSIRDY) == RESET)
 8000b1a:	6823      	ldr	r3, [r4, #0]
 8000b1c:	079f      	lsls	r7, r3, #30
 8000b1e:	d4ec      	bmi.n	8000afa <HAL_RCC_OscConfig+0xfa>
          if ((HAL_GetTick() - tickstart) > HSI_TIMEOUT_VALUE)
 8000b20:	f7ff fb56 	bl	80001d0 <HAL_GetTick>
 8000b24:	1b80      	subs	r0, r0, r6
 8000b26:	2802      	cmp	r0, #2
 8000b28:	d9f7      	bls.n	8000b1a <HAL_RCC_OscConfig+0x11a>
 8000b2a:	e7ab      	b.n	8000a84 <HAL_RCC_OscConfig+0x84>
        __HAL_RCC_HSI_DISABLE();
 8000b2c:	601a      	str	r2, [r3, #0]
        tickstart = HAL_GetTick();
 8000b2e:	f7ff fb4f 	bl	80001d0 <HAL_GetTick>
 8000b32:	4606      	mov	r6, r0
        while (__HAL_RCC_GET_FLAG(RCC_FLAG_HSIRDY) != RESET)
 8000b34:	6823      	ldr	r3, [r4, #0]
 8000b36:	0798      	lsls	r0, r3, #30
 8000b38:	f57f af6e 	bpl.w	8000a18 <HAL_RCC_OscConfig+0x18>
          if ((HAL_GetTick() - tickstart) > HSI_TIMEOUT_VALUE)
 8000b3c:	f7ff fb48 	bl	80001d0 <HAL_GetTick>
 8000b40:	1b80      	subs	r0, r0, r6
 8000b42:	2802      	cmp	r0, #2
 8000b44:	d9f6      	bls.n	8000b34 <HAL_RCC_OscConfig+0x134>
 8000b46:	e79d      	b.n	8000a84 <HAL_RCC_OscConfig+0x84>
    if (RCC_OscInitStruct->LSIState != RCC_LSI_OFF)
 8000b48:	69aa      	ldr	r2, [r5, #24]
 8000b4a:	4c4a      	ldr	r4, [pc, #296]	; (8000c74 <HAL_RCC_OscConfig+0x274>)
 8000b4c:	4b4b      	ldr	r3, [pc, #300]	; (8000c7c <HAL_RCC_OscConfig+0x27c>)
 8000b4e:	b1da      	cbz	r2, 8000b88 <HAL_RCC_OscConfig+0x188>
      __HAL_RCC_LSI_ENABLE();
 8000b50:	2201      	movs	r2, #1
 8000b52:	601a      	str	r2, [r3, #0]
      tickstart = HAL_GetTick();
 8000b54:	f7ff fb3c 	bl	80001d0 <HAL_GetTick>
 8000b58:	4606      	mov	r6, r0
      while (__HAL_RCC_GET_FLAG(RCC_FLAG_LSIRDY) == RESET)
 8000b5a:	6a63      	ldr	r3, [r4, #36]	; 0x24
 8000b5c:	079b      	lsls	r3, r3, #30
 8000b5e:	d50d      	bpl.n	8000b7c <HAL_RCC_OscConfig+0x17c>
  * @param  mdelay: specifies the delay time length, in milliseconds.
  * @retval None
  */
static void RCC_Delay(uint32_t mdelay)
{
  __IO uint32_t Delay = mdelay * (SystemCoreClock / 8U / 1000U);
 8000b60:	f44f 52fa 	mov.w	r2, #8000	; 0x1f40
 8000b64:	4b46      	ldr	r3, [pc, #280]	; (8000c80 <HAL_RCC_OscConfig+0x280>)
 8000b66:	681b      	ldr	r3, [r3, #0]
 8000b68:	fbb3 f3f2 	udiv	r3, r3, r2
 8000b6c:	9301      	str	r3, [sp, #4]
  do
  {
    __NOP();
 8000b6e:	bf00      	nop
  }
  while (Delay --);
 8000b70:	9b01      	ldr	r3, [sp, #4]
 8000b72:	1e5a      	subs	r2, r3, #1
 8000b74:	9201      	str	r2, [sp, #4]
 8000b76:	2b00      	cmp	r3, #0
 8000b78:	d1f9      	bne.n	8000b6e <HAL_RCC_OscConfig+0x16e>
 8000b7a:	e751      	b.n	8000a20 <HAL_RCC_OscConfig+0x20>
        if ((HAL_GetTick() - tickstart) > LSI_TIMEOUT_VALUE)
 8000b7c:	f7ff fb28 	bl	80001d0 <HAL_GetTick>
 8000b80:	1b80      	subs	r0, r0, r6
 8000b82:	2802      	cmp	r0, #2
 8000b84:	d9e9      	bls.n	8000b5a <HAL_RCC_OscConfig+0x15a>
 8000b86:	e77d      	b.n	8000a84 <HAL_RCC_OscConfig+0x84>
      __HAL_RCC_LSI_DISABLE();
 8000b88:	601a      	str	r2, [r3, #0]
      tickstart = HAL_GetTick();
 8000b8a:	f7ff fb21 	bl	80001d0 <HAL_GetTick>
 8000b8e:	4606      	mov	r6, r0
      while (__HAL_RCC_GET_FLAG(RCC_FLAG_LSIRDY) != RESET)
 8000b90:	6a63      	ldr	r3, [r4, #36]	; 0x24
 8000b92:	079f      	lsls	r7, r3, #30
 8000b94:	f57f af44 	bpl.w	8000a20 <HAL_RCC_OscConfig+0x20>
        if ((HAL_GetTick() - tickstart) > LSI_TIMEOUT_VALUE)
 8000b98:	f7ff fb1a 	bl	80001d0 <HAL_GetTick>
 8000b9c:	1b80      	subs	r0, r0, r6
 8000b9e:	2802      	cmp	r0, #2
 8000ba0:	d9f6      	bls.n	8000b90 <HAL_RCC_OscConfig+0x190>
 8000ba2:	e76f      	b.n	8000a84 <HAL_RCC_OscConfig+0x84>
    if (__HAL_RCC_PWR_IS_CLK_DISABLED())
 8000ba4:	4c33      	ldr	r4, [pc, #204]	; (8000c74 <HAL_RCC_OscConfig+0x274>)
 8000ba6:	69e3      	ldr	r3, [r4, #28]
 8000ba8:	00d8      	lsls	r0, r3, #3
 8000baa:	d424      	bmi.n	8000bf6 <HAL_RCC_OscConfig+0x1f6>
      pwrclkchanged = SET;
 8000bac:	2701      	movs	r7, #1
      __HAL_RCC_PWR_CLK_ENABLE();
 8000bae:	69e3      	ldr	r3, [r4, #28]
 8000bb0:	f043 5380 	orr.w	r3, r3, #268435456	; 0x10000000
 8000bb4:	61e3      	str	r3, [r4, #28]
 8000bb6:	69e3      	ldr	r3, [r4, #28]
 8000bb8:	f003 5380 	and.w	r3, r3, #268435456	; 0x10000000
 8000bbc:	9300      	str	r3, [sp, #0]
 8000bbe:	9b00      	ldr	r3, [sp, #0]
    if (HAL_IS_BIT_CLR(PWR->CR, PWR_CR_DBP))
 8000bc0:	4e30      	ldr	r6, [pc, #192]	; (8000c84 <HAL_RCC_OscConfig+0x284>)
 8000bc2:	6833      	ldr	r3, [r6, #0]
 8000bc4:	05d9      	lsls	r1, r3, #23
 8000bc6:	d518      	bpl.n	8000bfa <HAL_RCC_OscConfig+0x1fa>
    __HAL_RCC_LSE_CONFIG(RCC_OscInitStruct->LSEState);
 8000bc8:	68eb      	ldr	r3, [r5, #12]
 8000bca:	2b01      	cmp	r3, #1
 8000bcc:	d126      	bne.n	8000c1c <HAL_RCC_OscConfig+0x21c>
 8000bce:	6a23      	ldr	r3, [r4, #32]
 8000bd0:	f043 0301 	orr.w	r3, r3, #1
 8000bd4:	6223      	str	r3, [r4, #32]
      tickstart = HAL_GetTick();
 8000bd6:	f7ff fafb 	bl	80001d0 <HAL_GetTick>
        if ((HAL_GetTick() - tickstart) > RCC_LSE_TIMEOUT_VALUE)
 8000bda:	f241 3688 	movw	r6, #5000	; 0x1388
      tickstart = HAL_GetTick();
 8000bde:	4680      	mov	r8, r0
      while (__HAL_RCC_GET_FLAG(RCC_FLAG_LSERDY) == RESET)
 8000be0:	6a23      	ldr	r3, [r4, #32]
 8000be2:	079b      	lsls	r3, r3, #30
 8000be4:	d53f      	bpl.n	8000c66 <HAL_RCC_OscConfig+0x266>
    if (pwrclkchanged == SET)
 8000be6:	2f00      	cmp	r7, #0
 8000be8:	f43f af1e 	beq.w	8000a28 <HAL_RCC_OscConfig+0x28>
      __HAL_RCC_PWR_CLK_DISABLE();
 8000bec:	69e3      	ldr	r3, [r4, #28]
 8000bee:	f023 5380 	bic.w	r3, r3, #268435456	; 0x10000000
 8000bf2:	61e3      	str	r3, [r4, #28]
 8000bf4:	e718      	b.n	8000a28 <HAL_RCC_OscConfig+0x28>
    FlagStatus       pwrclkchanged = RESET;
 8000bf6:	2700      	movs	r7, #0
 8000bf8:	e7e2      	b.n	8000bc0 <HAL_RCC_OscConfig+0x1c0>
      SET_BIT(PWR->CR, PWR_CR_DBP);
 8000bfa:	6833      	ldr	r3, [r6, #0]
 8000bfc:	f443 7380 	orr.w	r3, r3, #256	; 0x100
 8000c00:	6033      	str	r3, [r6, #0]
      tickstart = HAL_GetTick();
 8000c02:	f7ff fae5 	bl	80001d0 <HAL_GetTick>
 8000c06:	4680      	mov	r8, r0
      while (HAL_IS_BIT_CLR(PWR->CR, PWR_CR_DBP))
 8000c08:	6833      	ldr	r3, [r6, #0]
 8000c0a:	05da      	lsls	r2, r3, #23
 8000c0c:	d4dc      	bmi.n	8000bc8 <HAL_RCC_OscConfig+0x1c8>
        if ((HAL_GetTick() - tickstart) > RCC_DBP_TIMEOUT_VALUE)
 8000c0e:	f7ff fadf 	bl	80001d0 <HAL_GetTick>
 8000c12:	eba0 0008 	sub.w	r0, r0, r8
 8000c16:	2864      	cmp	r0, #100	; 0x64
 8000c18:	d9f6      	bls.n	8000c08 <HAL_RCC_OscConfig+0x208>
 8000c1a:	e733      	b.n	8000a84 <HAL_RCC_OscConfig+0x84>
    __HAL_RCC_LSE_CONFIG(RCC_OscInitStruct->LSEState);
 8000c1c:	b9ab      	cbnz	r3, 8000c4a <HAL_RCC_OscConfig+0x24a>
 8000c1e:	6a23      	ldr	r3, [r4, #32]
        if ((HAL_GetTick() - tickstart) > RCC_LSE_TIMEOUT_VALUE)
 8000c20:	f241 3888 	movw	r8, #5000	; 0x1388
    __HAL_RCC_LSE_CONFIG(RCC_OscInitStruct->LSEState);
 8000c24:	f023 0301 	bic.w	r3, r3, #1
 8000c28:	6223      	str	r3, [r4, #32]
 8000c2a:	6a23      	ldr	r3, [r4, #32]
 8000c2c:	f023 0304 	bic.w	r3, r3, #4
 8000c30:	6223      	str	r3, [r4, #32]
      tickstart = HAL_GetTick();
 8000c32:	f7ff facd 	bl	80001d0 <HAL_GetTick>
 8000c36:	4606      	mov	r6, r0
      while (__HAL_RCC_GET_FLAG(RCC_FLAG_LSERDY) != RESET)
 8000c38:	6a23      	ldr	r3, [r4, #32]
 8000c3a:	0798      	lsls	r0, r3, #30
 8000c3c:	d5d3      	bpl.n	8000be6 <HAL_RCC_OscConfig+0x1e6>
        if ((HAL_GetTick() - tickstart) > RCC_LSE_TIMEOUT_VALUE)
 8000c3e:	f7ff fac7 	bl	80001d0 <HAL_GetTick>
 8000c42:	1b80      	subs	r0, r0, r6
 8000c44:	4540      	cmp	r0, r8
 8000c46:	d9f7      	bls.n	8000c38 <HAL_RCC_OscConfig+0x238>
 8000c48:	e71c      	b.n	8000a84 <HAL_RCC_OscConfig+0x84>
    __HAL_RCC_LSE_CONFIG(RCC_OscInitStruct->LSEState);
 8000c4a:	2b05      	cmp	r3, #5
 8000c4c:	6a23      	ldr	r3, [r4, #32]
 8000c4e:	d103      	bne.n	8000c58 <HAL_RCC_OscConfig+0x258>
 8000c50:	f043 0304 	orr.w	r3, r3, #4
 8000c54:	6223      	str	r3, [r4, #32]
 8000c56:	e7ba      	b.n	8000bce <HAL_RCC_OscConfig+0x1ce>
 8000c58:	f023 0301 	bic.w	r3, r3, #1
 8000c5c:	6223      	str	r3, [r4, #32]
 8000c5e:	6a23      	ldr	r3, [r4, #32]
 8000c60:	f023 0304 	bic.w	r3, r3, #4
 8000c64:	e7b6      	b.n	8000bd4 <HAL_RCC_OscConfig+0x1d4>
        if ((HAL_GetTick() - tickstart) > RCC_LSE_TIMEOUT_VALUE)
 8000c66:	f7ff fab3 	bl	80001d0 <HAL_GetTick>
 8000c6a:	eba0 0008 	sub.w	r0, r0, r8
 8000c6e:	42b0      	cmp	r0, r6
 8000c70:	d9b6      	bls.n	8000be0 <HAL_RCC_OscConfig+0x1e0>
 8000c72:	e707      	b.n	8000a84 <HAL_RCC_OscConfig+0x84>
 8000c74:	40021000 	.word	0x40021000
 8000c78:	42420000 	.word	0x42420000
 8000c7c:	42420480 	.word	0x42420480
 8000c80:	20000008 	.word	0x20000008
 8000c84:	40007000 	.word	0x40007000
    if (__HAL_RCC_GET_SYSCLK_SOURCE() != RCC_SYSCLKSOURCE_STATUS_PLLCLK)
 8000c88:	4b2a      	ldr	r3, [pc, #168]	; (8000d34 <HAL_RCC_OscConfig+0x334>)
 8000c8a:	685a      	ldr	r2, [r3, #4]
 8000c8c:	461c      	mov	r4, r3
 8000c8e:	f002 020c 	and.w	r2, r2, #12
 8000c92:	2a08      	cmp	r2, #8
 8000c94:	d03d      	beq.n	8000d12 <HAL_RCC_OscConfig+0x312>
 8000c96:	2300      	movs	r3, #0
 8000c98:	4e27      	ldr	r6, [pc, #156]	; (8000d38 <HAL_RCC_OscConfig+0x338>)
      if ((RCC_OscInitStruct->PLL.PLLState) == RCC_PLL_ON)
 8000c9a:	2802      	cmp	r0, #2
        __HAL_RCC_PLL_DISABLE();
 8000c9c:	6033      	str	r3, [r6, #0]
      if ((RCC_OscInitStruct->PLL.PLLState) == RCC_PLL_ON)
 8000c9e:	d12b      	bne.n	8000cf8 <HAL_RCC_OscConfig+0x2f8>
        tickstart = HAL_GetTick();
 8000ca0:	f7ff fa96 	bl	80001d0 <HAL_GetTick>
 8000ca4:	4607      	mov	r7, r0
        while (__HAL_RCC_GET_FLAG(RCC_FLAG_PLLRDY)  != RESET)
 8000ca6:	6823      	ldr	r3, [r4, #0]
 8000ca8:	0199      	lsls	r1, r3, #6
 8000caa:	d41f      	bmi.n	8000cec <HAL_RCC_OscConfig+0x2ec>
        if (RCC_OscInitStruct->PLL.PLLSource == RCC_PLLSOURCE_HSE)
 8000cac:	6a2b      	ldr	r3, [r5, #32]
 8000cae:	f5b3 3f80 	cmp.w	r3, #65536	; 0x10000
 8000cb2:	d105      	bne.n	8000cc0 <HAL_RCC_OscConfig+0x2c0>
          __HAL_RCC_HSE_PREDIV_CONFIG(RCC_OscInitStruct->HSEPredivValue);
 8000cb4:	6862      	ldr	r2, [r4, #4]
 8000cb6:	68a9      	ldr	r1, [r5, #8]
 8000cb8:	f422 3200 	bic.w	r2, r2, #131072	; 0x20000
 8000cbc:	430a      	orrs	r2, r1
 8000cbe:	6062      	str	r2, [r4, #4]
        __HAL_RCC_PLL_CONFIG(RCC_OscInitStruct->PLL.PLLSource,
 8000cc0:	6a69      	ldr	r1, [r5, #36]	; 0x24
 8000cc2:	6862      	ldr	r2, [r4, #4]
 8000cc4:	430b      	orrs	r3, r1
 8000cc6:	f422 1274 	bic.w	r2, r2, #3997696	; 0x3d0000
 8000cca:	4313      	orrs	r3, r2
 8000ccc:	6063      	str	r3, [r4, #4]
        __HAL_RCC_PLL_ENABLE();
 8000cce:	2301      	movs	r3, #1
 8000cd0:	6033      	str	r3, [r6, #0]
        tickstart = HAL_GetTick();
 8000cd2:	f7ff fa7d 	bl	80001d0 <HAL_GetTick>
 8000cd6:	4605      	mov	r5, r0
        while (__HAL_RCC_GET_FLAG(RCC_FLAG_PLLRDY)  == RESET)
 8000cd8:	6823      	ldr	r3, [r4, #0]
 8000cda:	019a      	lsls	r2, r3, #6
 8000cdc:	f53f aea8 	bmi.w	8000a30 <HAL_RCC_OscConfig+0x30>
          if ((HAL_GetTick() - tickstart) > PLL_TIMEOUT_VALUE)
 8000ce0:	f7ff fa76 	bl	80001d0 <HAL_GetTick>
 8000ce4:	1b40      	subs	r0, r0, r5
 8000ce6:	2802      	cmp	r0, #2
 8000ce8:	d9f6      	bls.n	8000cd8 <HAL_RCC_OscConfig+0x2d8>
 8000cea:	e6cb      	b.n	8000a84 <HAL_RCC_OscConfig+0x84>
          if ((HAL_GetTick() - tickstart) > PLL_TIMEOUT_VALUE)
 8000cec:	f7ff fa70 	bl	80001d0 <HAL_GetTick>
 8000cf0:	1bc0      	subs	r0, r0, r7
 8000cf2:	2802      	cmp	r0, #2
 8000cf4:	d9d7      	bls.n	8000ca6 <HAL_RCC_OscConfig+0x2a6>
 8000cf6:	e6c5      	b.n	8000a84 <HAL_RCC_OscConfig+0x84>
        tickstart = HAL_GetTick();
 8000cf8:	f7ff fa6a 	bl	80001d0 <HAL_GetTick>
 8000cfc:	4605      	mov	r5, r0
        while (__HAL_RCC_GET_FLAG(RCC_FLAG_PLLRDY)  != RESET)
 8000cfe:	6823      	ldr	r3, [r4, #0]
 8000d00:	019b      	lsls	r3, r3, #6
 8000d02:	f57f ae95 	bpl.w	8000a30 <HAL_RCC_OscConfig+0x30>
          if ((HAL_GetTick() - tickstart) > PLL_TIMEOUT_VALUE)
 8000d06:	f7ff fa63 	bl	80001d0 <HAL_GetTick>
 8000d0a:	1b40      	subs	r0, r0, r5
 8000d0c:	2802      	cmp	r0, #2
 8000d0e:	d9f6      	bls.n	8000cfe <HAL_RCC_OscConfig+0x2fe>
 8000d10:	e6b8      	b.n	8000a84 <HAL_RCC_OscConfig+0x84>
      if ((RCC_OscInitStruct->PLL.PLLState) == RCC_PLL_OFF)
 8000d12:	2801      	cmp	r0, #1
 8000d14:	f43f aeb7 	beq.w	8000a86 <HAL_RCC_OscConfig+0x86>
        pll_config = RCC->CFGR;
 8000d18:	6858      	ldr	r0, [r3, #4]
        if ((READ_BIT(pll_config, RCC_CFGR_PLLSRC) != RCC_OscInitStruct->PLL.PLLSource) ||
 8000d1a:	6a2b      	ldr	r3, [r5, #32]
 8000d1c:	f400 3280 	and.w	r2, r0, #65536	; 0x10000
 8000d20:	429a      	cmp	r2, r3
 8000d22:	f47f ae71 	bne.w	8000a08 <HAL_RCC_OscConfig+0x8>
 8000d26:	6a6b      	ldr	r3, [r5, #36]	; 0x24
            (READ_BIT(pll_config, RCC_CFGR_PLLMULL) != RCC_OscInitStruct->PLL.PLLMUL))
 8000d28:	f400 1070 	and.w	r0, r0, #3932160	; 0x3c0000
    return HAL_ERROR;
 8000d2c:	1ac0      	subs	r0, r0, r3
 8000d2e:	bf18      	it	ne
 8000d30:	2001      	movne	r0, #1
 8000d32:	e6a8      	b.n	8000a86 <HAL_RCC_OscConfig+0x86>
 8000d34:	40021000 	.word	0x40021000
 8000d38:	42420060 	.word	0x42420060

08000d3c <HAL_RCC_GetSysClockFreq>:
{
 8000d3c:	b530      	push	{r4, r5, lr}
  const uint8_t aPLLMULFactorTable[16] = {2, 3, 4, 5, 6, 7, 8, 9, 10, 11, 12, 13, 14, 15, 16, 16};
 8000d3e:	4b19      	ldr	r3, [pc, #100]	; (8000da4 <HAL_RCC_GetSysClockFreq+0x68>)
{
 8000d40:	b087      	sub	sp, #28
  const uint8_t aPLLMULFactorTable[16] = {2, 3, 4, 5, 6, 7, 8, 9, 10, 11, 12, 13, 14, 15, 16, 16};
 8000d42:	ac02      	add	r4, sp, #8
 8000d44:	f103 0510 	add.w	r5, r3, #16
 8000d48:	4622      	mov	r2, r4
 8000d4a:	6818      	ldr	r0, [r3, #0]
 8000d4c:	6859      	ldr	r1, [r3, #4]
 8000d4e:	3308      	adds	r3, #8
 8000d50:	c203      	stmia	r2!, {r0, r1}
 8000d52:	42ab      	cmp	r3, r5
 8000d54:	4614      	mov	r4, r2
 8000d56:	d1f7      	bne.n	8000d48 <HAL_RCC_GetSysClockFreq+0xc>
  const uint8_t aPredivFactorTable[2] = {1, 2};
 8000d58:	2301      	movs	r3, #1
 8000d5a:	f88d 3004 	strb.w	r3, [sp, #4]
 8000d5e:	2302      	movs	r3, #2
  tmpreg = RCC->CFGR;
 8000d60:	4911      	ldr	r1, [pc, #68]	; (8000da8 <HAL_RCC_GetSysClockFreq+0x6c>)
  const uint8_t aPredivFactorTable[2] = {1, 2};
 8000d62:	f88d 3005 	strb.w	r3, [sp, #5]
  tmpreg = RCC->CFGR;
 8000d66:	684b      	ldr	r3, [r1, #4]
  switch (tmpreg & RCC_CFGR_SWS)
 8000d68:	f003 020c 	and.w	r2, r3, #12
 8000d6c:	2a08      	cmp	r2, #8
 8000d6e:	d117      	bne.n	8000da0 <HAL_RCC_GetSysClockFreq+0x64>
      pllmul = aPLLMULFactorTable[(uint32_t)(tmpreg & RCC_CFGR_PLLMULL) >> RCC_CFGR_PLLMULL_Pos];
 8000d70:	f3c3 4283 	ubfx	r2, r3, #18, #4
 8000d74:	a806      	add	r0, sp, #24
 8000d76:	4402      	add	r2, r0
      if ((tmpreg & RCC_CFGR_PLLSRC) != RCC_PLLSOURCE_HSI_DIV2)
 8000d78:	03db      	lsls	r3, r3, #15
      pllmul = aPLLMULFactorTable[(uint32_t)(tmpreg & RCC_CFGR_PLLMULL) >> RCC_CFGR_PLLMULL_Pos];
 8000d7a:	f812 2c10 	ldrb.w	r2, [r2, #-16]
      if ((tmpreg & RCC_CFGR_PLLSRC) != RCC_PLLSOURCE_HSI_DIV2)
 8000d7e:	d50c      	bpl.n	8000d9a <HAL_RCC_GetSysClockFreq+0x5e>
        prediv = aPredivFactorTable[(uint32_t)(RCC->CFGR & RCC_CFGR_PLLXTPRE) >> RCC_CFGR_PLLXTPRE_Pos];
 8000d80:	684b      	ldr	r3, [r1, #4]
        pllclk = (uint32_t)((HSE_VALUE  * pllmul) / prediv);
 8000d82:	480a      	ldr	r0, [pc, #40]	; (8000dac <HAL_RCC_GetSysClockFreq+0x70>)
        prediv = aPredivFactorTable[(uint32_t)(RCC->CFGR & RCC_CFGR_PLLXTPRE) >> RCC_CFGR_PLLXTPRE_Pos];
 8000d84:	f3c3 4340 	ubfx	r3, r3, #17, #1
        pllclk = (uint32_t)((HSE_VALUE  * pllmul) / prediv);
 8000d88:	4350      	muls	r0, r2
        prediv = aPredivFactorTable[(uint32_t)(RCC->CFGR & RCC_CFGR_PLLXTPRE) >> RCC_CFGR_PLLXTPRE_Pos];
 8000d8a:	aa06      	add	r2, sp, #24
 8000d8c:	4413      	add	r3, r2
 8000d8e:	f813 3c14 	ldrb.w	r3, [r3, #-20]
        pllclk = (uint32_t)((HSE_VALUE  * pllmul) / prediv);
 8000d92:	fbb0 f0f3 	udiv	r0, r0, r3
}
 8000d96:	b007      	add	sp, #28
 8000d98:	bd30      	pop	{r4, r5, pc}
        pllclk = (uint32_t)((HSI_VALUE >> 1) * pllmul);
 8000d9a:	4805      	ldr	r0, [pc, #20]	; (8000db0 <HAL_RCC_GetSysClockFreq+0x74>)
 8000d9c:	4350      	muls	r0, r2
 8000d9e:	e7fa      	b.n	8000d96 <HAL_RCC_GetSysClockFreq+0x5a>
      sysclockfreq = HSE_VALUE;
 8000da0:	4802      	ldr	r0, [pc, #8]	; (8000dac <HAL_RCC_GetSysClockFreq+0x70>)
  return sysclockfreq;
 8000da2:	e7f8      	b.n	8000d96 <HAL_RCC_GetSysClockFreq+0x5a>
 8000da4:	08003ce0 	.word	0x08003ce0
 8000da8:	40021000 	.word	0x40021000
 8000dac:	007a1200 	.word	0x007a1200
 8000db0:	003d0900 	.word	0x003d0900

08000db4 <HAL_RCC_ClockConfig>:
{
 8000db4:	e92d 41f0 	stmdb	sp!, {r4, r5, r6, r7, r8, lr}
 8000db8:	460d      	mov	r5, r1
  if (RCC_ClkInitStruct == NULL)
 8000dba:	4604      	mov	r4, r0
 8000dbc:	b910      	cbnz	r0, 8000dc4 <HAL_RCC_ClockConfig+0x10>
    return HAL_ERROR;
 8000dbe:	2001      	movs	r0, #1
 8000dc0:	e8bd 81f0 	ldmia.w	sp!, {r4, r5, r6, r7, r8, pc}
  if (FLatency > __HAL_FLASH_GET_LATENCY())
 8000dc4:	4a45      	ldr	r2, [pc, #276]	; (8000edc <HAL_RCC_ClockConfig+0x128>)
 8000dc6:	6813      	ldr	r3, [r2, #0]
 8000dc8:	f003 0307 	and.w	r3, r3, #7
 8000dcc:	428b      	cmp	r3, r1
 8000dce:	d329      	bcc.n	8000e24 <HAL_RCC_ClockConfig+0x70>
if (((RCC_ClkInitStruct->ClockType) & RCC_CLOCKTYPE_HCLK) == RCC_CLOCKTYPE_HCLK)
 8000dd0:	6821      	ldr	r1, [r4, #0]
 8000dd2:	078e      	lsls	r6, r1, #30
 8000dd4:	d431      	bmi.n	8000e3a <HAL_RCC_ClockConfig+0x86>
  if (((RCC_ClkInitStruct->ClockType) & RCC_CLOCKTYPE_SYSCLK) == RCC_CLOCKTYPE_SYSCLK)
 8000dd6:	07ca      	lsls	r2, r1, #31
 8000dd8:	d444      	bmi.n	8000e64 <HAL_RCC_ClockConfig+0xb0>
  if (FLatency < __HAL_FLASH_GET_LATENCY())
 8000dda:	4a40      	ldr	r2, [pc, #256]	; (8000edc <HAL_RCC_ClockConfig+0x128>)
 8000ddc:	6813      	ldr	r3, [r2, #0]
 8000dde:	f003 0307 	and.w	r3, r3, #7
 8000de2:	429d      	cmp	r5, r3
 8000de4:	d367      	bcc.n	8000eb6 <HAL_RCC_ClockConfig+0x102>
if (((RCC_ClkInitStruct->ClockType) & RCC_CLOCKTYPE_PCLK1) == RCC_CLOCKTYPE_PCLK1)
 8000de6:	6822      	ldr	r2, [r4, #0]
 8000de8:	4d3d      	ldr	r5, [pc, #244]	; (8000ee0 <HAL_RCC_ClockConfig+0x12c>)
 8000dea:	f012 0f04 	tst.w	r2, #4
 8000dee:	d16e      	bne.n	8000ece <HAL_RCC_ClockConfig+0x11a>
  if (((RCC_ClkInitStruct->ClockType) & RCC_CLOCKTYPE_PCLK2) == RCC_CLOCKTYPE_PCLK2)
 8000df0:	0713      	lsls	r3, r2, #28
 8000df2:	d506      	bpl.n	8000e02 <HAL_RCC_ClockConfig+0x4e>
    MODIFY_REG(RCC->CFGR, RCC_CFGR_PPRE2, ((RCC_ClkInitStruct->APB2CLKDivider) << 3));
 8000df4:	686b      	ldr	r3, [r5, #4]
 8000df6:	6922      	ldr	r2, [r4, #16]
 8000df8:	f423 5360 	bic.w	r3, r3, #14336	; 0x3800
 8000dfc:	ea43 03c2 	orr.w	r3, r3, r2, lsl #3
 8000e00:	606b      	str	r3, [r5, #4]
  SystemCoreClock = HAL_RCC_GetSysClockFreq() >> AHBPrescTable[(RCC->CFGR & RCC_CFGR_HPRE) >> RCC_CFGR_HPRE_Pos];
 8000e02:	f7ff ff9b 	bl	8000d3c <HAL_RCC_GetSysClockFreq>
 8000e06:	686b      	ldr	r3, [r5, #4]
 8000e08:	4a36      	ldr	r2, [pc, #216]	; (8000ee4 <HAL_RCC_ClockConfig+0x130>)
 8000e0a:	f3c3 1303 	ubfx	r3, r3, #4, #4
 8000e0e:	5cd3      	ldrb	r3, [r2, r3]
 8000e10:	40d8      	lsrs	r0, r3
 8000e12:	4b35      	ldr	r3, [pc, #212]	; (8000ee8 <HAL_RCC_ClockConfig+0x134>)
 8000e14:	6018      	str	r0, [r3, #0]
  HAL_InitTick(uwTickPrio);
 8000e16:	4b35      	ldr	r3, [pc, #212]	; (8000eec <HAL_RCC_ClockConfig+0x138>)
 8000e18:	6818      	ldr	r0, [r3, #0]
 8000e1a:	f7ff f997 	bl	800014c <HAL_InitTick>
  return HAL_OK;
 8000e1e:	2000      	movs	r0, #0
 8000e20:	e8bd 81f0 	ldmia.w	sp!, {r4, r5, r6, r7, r8, pc}
    __HAL_FLASH_SET_LATENCY(FLatency);
 8000e24:	6813      	ldr	r3, [r2, #0]
 8000e26:	f023 0307 	bic.w	r3, r3, #7
 8000e2a:	430b      	orrs	r3, r1
 8000e2c:	6013      	str	r3, [r2, #0]
    if (__HAL_FLASH_GET_LATENCY() != FLatency)
 8000e2e:	6813      	ldr	r3, [r2, #0]
 8000e30:	f003 0307 	and.w	r3, r3, #7
 8000e34:	4299      	cmp	r1, r3
 8000e36:	d1c2      	bne.n	8000dbe <HAL_RCC_ClockConfig+0xa>
 8000e38:	e7ca      	b.n	8000dd0 <HAL_RCC_ClockConfig+0x1c>
 8000e3a:	4b29      	ldr	r3, [pc, #164]	; (8000ee0 <HAL_RCC_ClockConfig+0x12c>)
    if (((RCC_ClkInitStruct->ClockType) & RCC_CLOCKTYPE_PCLK1) == RCC_CLOCKTYPE_PCLK1)
 8000e3c:	f011 0f04 	tst.w	r1, #4
      MODIFY_REG(RCC->CFGR, RCC_CFGR_PPRE1, RCC_HCLK_DIV16);
 8000e40:	bf1e      	ittt	ne
 8000e42:	685a      	ldrne	r2, [r3, #4]
 8000e44:	f442 62e0 	orrne.w	r2, r2, #1792	; 0x700
 8000e48:	605a      	strne	r2, [r3, #4]
    if (((RCC_ClkInitStruct->ClockType) & RCC_CLOCKTYPE_PCLK2) == RCC_CLOCKTYPE_PCLK2)
 8000e4a:	0708      	lsls	r0, r1, #28
      MODIFY_REG(RCC->CFGR, RCC_CFGR_PPRE2, (RCC_HCLK_DIV16 << 3));
 8000e4c:	bf42      	ittt	mi
 8000e4e:	685a      	ldrmi	r2, [r3, #4]
 8000e50:	f442 5260 	orrmi.w	r2, r2, #14336	; 0x3800
 8000e54:	605a      	strmi	r2, [r3, #4]
    MODIFY_REG(RCC->CFGR, RCC_CFGR_HPRE, RCC_ClkInitStruct->AHBCLKDivider);
 8000e56:	685a      	ldr	r2, [r3, #4]
 8000e58:	68a0      	ldr	r0, [r4, #8]
 8000e5a:	f022 02f0 	bic.w	r2, r2, #240	; 0xf0
 8000e5e:	4302      	orrs	r2, r0
 8000e60:	605a      	str	r2, [r3, #4]
 8000e62:	e7b8      	b.n	8000dd6 <HAL_RCC_ClockConfig+0x22>
    if (RCC_ClkInitStruct->SYSCLKSource == RCC_SYSCLKSOURCE_HSE)
 8000e64:	6862      	ldr	r2, [r4, #4]
 8000e66:	4e1e      	ldr	r6, [pc, #120]	; (8000ee0 <HAL_RCC_ClockConfig+0x12c>)
 8000e68:	2a01      	cmp	r2, #1
      if (__HAL_RCC_GET_FLAG(RCC_FLAG_HSERDY) == RESET)
 8000e6a:	6833      	ldr	r3, [r6, #0]
    if (RCC_ClkInitStruct->SYSCLKSource == RCC_SYSCLKSOURCE_HSE)
 8000e6c:	d11b      	bne.n	8000ea6 <HAL_RCC_ClockConfig+0xf2>
      if (__HAL_RCC_GET_FLAG(RCC_FLAG_HSERDY) == RESET)
 8000e6e:	f413 3f00 	tst.w	r3, #131072	; 0x20000
      if (__HAL_RCC_GET_FLAG(RCC_FLAG_HSIRDY) == RESET)
 8000e72:	d0a4      	beq.n	8000dbe <HAL_RCC_ClockConfig+0xa>
    __HAL_RCC_SYSCLK_CONFIG(RCC_ClkInitStruct->SYSCLKSource);
 8000e74:	6873      	ldr	r3, [r6, #4]
      if ((HAL_GetTick() - tickstart) > CLOCKSWITCH_TIMEOUT_VALUE)
 8000e76:	f241 3888 	movw	r8, #5000	; 0x1388
    __HAL_RCC_SYSCLK_CONFIG(RCC_ClkInitStruct->SYSCLKSource);
 8000e7a:	f023 0303 	bic.w	r3, r3, #3
 8000e7e:	4313      	orrs	r3, r2
 8000e80:	6073      	str	r3, [r6, #4]
    tickstart = HAL_GetTick();
 8000e82:	f7ff f9a5 	bl	80001d0 <HAL_GetTick>
 8000e86:	4607      	mov	r7, r0
    while (__HAL_RCC_GET_SYSCLK_SOURCE() != (RCC_ClkInitStruct->SYSCLKSource << RCC_CFGR_SWS_Pos))
 8000e88:	6873      	ldr	r3, [r6, #4]
 8000e8a:	6862      	ldr	r2, [r4, #4]
 8000e8c:	f003 030c 	and.w	r3, r3, #12
 8000e90:	ebb3 0f82 	cmp.w	r3, r2, lsl #2
 8000e94:	d0a1      	beq.n	8000dda <HAL_RCC_ClockConfig+0x26>
      if ((HAL_GetTick() - tickstart) > CLOCKSWITCH_TIMEOUT_VALUE)
 8000e96:	f7ff f99b 	bl	80001d0 <HAL_GetTick>
 8000e9a:	1bc0      	subs	r0, r0, r7
 8000e9c:	4540      	cmp	r0, r8
 8000e9e:	d9f3      	bls.n	8000e88 <HAL_RCC_ClockConfig+0xd4>
        return HAL_TIMEOUT;
 8000ea0:	2003      	movs	r0, #3
}
 8000ea2:	e8bd 81f0 	ldmia.w	sp!, {r4, r5, r6, r7, r8, pc}
    else if (RCC_ClkInitStruct->SYSCLKSource == RCC_SYSCLKSOURCE_PLLCLK)
 8000ea6:	2a02      	cmp	r2, #2
 8000ea8:	d102      	bne.n	8000eb0 <HAL_RCC_ClockConfig+0xfc>
      if (__HAL_RCC_GET_FLAG(RCC_FLAG_PLLRDY) == RESET)
 8000eaa:	f013 7f00 	tst.w	r3, #33554432	; 0x2000000
 8000eae:	e7e0      	b.n	8000e72 <HAL_RCC_ClockConfig+0xbe>
      if (__HAL_RCC_GET_FLAG(RCC_FLAG_HSIRDY) == RESET)
 8000eb0:	f013 0f02 	tst.w	r3, #2
 8000eb4:	e7dd      	b.n	8000e72 <HAL_RCC_ClockConfig+0xbe>
    __HAL_FLASH_SET_LATENCY(FLatency);
 8000eb6:	6813      	ldr	r3, [r2, #0]
 8000eb8:	f023 0307 	bic.w	r3, r3, #7
 8000ebc:	432b      	orrs	r3, r5
 8000ebe:	6013      	str	r3, [r2, #0]
    if (__HAL_FLASH_GET_LATENCY() != FLatency)
 8000ec0:	6813      	ldr	r3, [r2, #0]
 8000ec2:	f003 0307 	and.w	r3, r3, #7
 8000ec6:	429d      	cmp	r5, r3
 8000ec8:	f47f af79 	bne.w	8000dbe <HAL_RCC_ClockConfig+0xa>
 8000ecc:	e78b      	b.n	8000de6 <HAL_RCC_ClockConfig+0x32>
    MODIFY_REG(RCC->CFGR, RCC_CFGR_PPRE1, RCC_ClkInitStruct->APB1CLKDivider);
 8000ece:	686b      	ldr	r3, [r5, #4]
 8000ed0:	68e1      	ldr	r1, [r4, #12]
 8000ed2:	f423 63e0 	bic.w	r3, r3, #1792	; 0x700
 8000ed6:	430b      	orrs	r3, r1
 8000ed8:	606b      	str	r3, [r5, #4]
 8000eda:	e789      	b.n	8000df0 <HAL_RCC_ClockConfig+0x3c>
 8000edc:	40022000 	.word	0x40022000
 8000ee0:	40021000 	.word	0x40021000
 8000ee4:	08003d61 	.word	0x08003d61
 8000ee8:	20000008 	.word	0x20000008
 8000eec:	20000004 	.word	0x20000004

08000ef0 <HAL_RCC_GetPCLK1Freq>:
  return (HAL_RCC_GetHCLKFreq() >> APBPrescTable[(RCC->CFGR & RCC_CFGR_PPRE1) >> RCC_CFGR_PPRE1_Pos]);
 8000ef0:	4b04      	ldr	r3, [pc, #16]	; (8000f04 <HAL_RCC_GetPCLK1Freq+0x14>)
 8000ef2:	4a05      	ldr	r2, [pc, #20]	; (8000f08 <HAL_RCC_GetPCLK1Freq+0x18>)
 8000ef4:	685b      	ldr	r3, [r3, #4]
 8000ef6:	f3c3 2302 	ubfx	r3, r3, #8, #3
 8000efa:	5cd3      	ldrb	r3, [r2, r3]
 8000efc:	4a03      	ldr	r2, [pc, #12]	; (8000f0c <HAL_RCC_GetPCLK1Freq+0x1c>)
 8000efe:	6810      	ldr	r0, [r2, #0]
}
 8000f00:	40d8      	lsrs	r0, r3
 8000f02:	4770      	bx	lr
 8000f04:	40021000 	.word	0x40021000
 8000f08:	08003d71 	.word	0x08003d71
 8000f0c:	20000008 	.word	0x20000008

08000f10 <HAL_RCC_GetPCLK2Freq>:
  return (HAL_RCC_GetHCLKFreq() >> APBPrescTable[(RCC->CFGR & RCC_CFGR_PPRE2) >> RCC_CFGR_PPRE2_Pos]);
 8000f10:	4b04      	ldr	r3, [pc, #16]	; (8000f24 <HAL_RCC_GetPCLK2Freq+0x14>)
 8000f12:	4a05      	ldr	r2, [pc, #20]	; (8000f28 <HAL_RCC_GetPCLK2Freq+0x18>)
 8000f14:	685b      	ldr	r3, [r3, #4]
 8000f16:	f3c3 23c2 	ubfx	r3, r3, #11, #3
 8000f1a:	5cd3      	ldrb	r3, [r2, r3]
 8000f1c:	4a03      	ldr	r2, [pc, #12]	; (8000f2c <HAL_RCC_GetPCLK2Freq+0x1c>)
 8000f1e:	6810      	ldr	r0, [r2, #0]
}
 8000f20:	40d8      	lsrs	r0, r3
 8000f22:	4770      	bx	lr
 8000f24:	40021000 	.word	0x40021000
 8000f28:	08003d71 	.word	0x08003d71
 8000f2c:	20000008 	.word	0x20000008

08000f30 <HAL_TIM_Base_Start_IT>:

  /* Check the parameters */
  assert_param(IS_TIM_INSTANCE(htim->Instance));

  /* Enable the TIM Update interrupt */
  __HAL_TIM_ENABLE_IT(htim, TIM_IT_UPDATE);
 8000f30:	6803      	ldr	r3, [r0, #0]
    __HAL_TIM_ENABLE(htim);
  }

  /* Return function status */
  return HAL_OK;
}
 8000f32:	2000      	movs	r0, #0
  __HAL_TIM_ENABLE_IT(htim, TIM_IT_UPDATE);
 8000f34:	68da      	ldr	r2, [r3, #12]
 8000f36:	f042 0201 	orr.w	r2, r2, #1
 8000f3a:	60da      	str	r2, [r3, #12]
  tmpsmcr = htim->Instance->SMCR & TIM_SMCR_SMS;
 8000f3c:	689a      	ldr	r2, [r3, #8]
 8000f3e:	f002 0207 	and.w	r2, r2, #7
  if (!IS_TIM_SLAVEMODE_TRIGGER_ENABLED(tmpsmcr))
 8000f42:	2a06      	cmp	r2, #6
    __HAL_TIM_ENABLE(htim);
 8000f44:	bf1e      	ittt	ne
 8000f46:	681a      	ldrne	r2, [r3, #0]
 8000f48:	f042 0201 	orrne.w	r2, r2, #1
 8000f4c:	601a      	strne	r2, [r3, #0]
}
 8000f4e:	4770      	bx	lr

08000f50 <HAL_TIM_OC_DelayElapsedCallback>:
 8000f50:	4770      	bx	lr

08000f52 <HAL_TIM_IC_CaptureCallback>:
 8000f52:	4770      	bx	lr

08000f54 <HAL_TIM_PWM_PulseFinishedCallback>:
 8000f54:	4770      	bx	lr

08000f56 <HAL_TIM_TriggerCallback>:
 8000f56:	4770      	bx	lr

08000f58 <HAL_TIM_IRQHandler>:
  * @retval None
  */
void HAL_TIM_IRQHandler(TIM_HandleTypeDef *htim)
{
  /* Capture compare 1 event */
  if (__HAL_TIM_GET_FLAG(htim, TIM_FLAG_CC1) != RESET)
 8000f58:	6803      	ldr	r3, [r0, #0]
{
 8000f5a:	b510      	push	{r4, lr}
  if (__HAL_TIM_GET_FLAG(htim, TIM_FLAG_CC1) != RESET)
 8000f5c:	691a      	ldr	r2, [r3, #16]
{
 8000f5e:	4604      	mov	r4, r0
  if (__HAL_TIM_GET_FLAG(htim, TIM_FLAG_CC1) != RESET)
 8000f60:	0791      	lsls	r1, r2, #30
 8000f62:	d50e      	bpl.n	8000f82 <HAL_TIM_IRQHandler+0x2a>
  {
    if (__HAL_TIM_GET_IT_SOURCE(htim, TIM_IT_CC1) != RESET)
 8000f64:	68da      	ldr	r2, [r3, #12]
 8000f66:	0792      	lsls	r2, r2, #30
 8000f68:	d50b      	bpl.n	8000f82 <HAL_TIM_IRQHandler+0x2a>
    {
      {
        __HAL_TIM_CLEAR_IT(htim, TIM_IT_CC1);
 8000f6a:	f06f 0202 	mvn.w	r2, #2
 8000f6e:	611a      	str	r2, [r3, #16]
        htim->Channel = HAL_TIM_ACTIVE_CHANNEL_1;
 8000f70:	2201      	movs	r2, #1

        /* Input capture event */
        if ((htim->Instance->CCMR1 & TIM_CCMR1_CC1S) != 0x00U)
 8000f72:	699b      	ldr	r3, [r3, #24]
        htim->Channel = HAL_TIM_ACTIVE_CHANNEL_1;
 8000f74:	7702      	strb	r2, [r0, #28]
        if ((htim->Instance->CCMR1 & TIM_CCMR1_CC1S) != 0x00U)
 8000f76:	079b      	lsls	r3, r3, #30
 8000f78:	d077      	beq.n	800106a <HAL_TIM_IRQHandler+0x112>
        {
#if (USE_HAL_TIM_REGISTER_CALLBACKS == 1)
          htim->IC_CaptureCallback(htim);
#else
          HAL_TIM_IC_CaptureCallback(htim);
 8000f7a:	f7ff ffea 	bl	8000f52 <HAL_TIM_IC_CaptureCallback>
#else
          HAL_TIM_OC_DelayElapsedCallback(htim);
          HAL_TIM_PWM_PulseFinishedCallback(htim);
#endif /* USE_HAL_TIM_REGISTER_CALLBACKS */
        }
        htim->Channel = HAL_TIM_ACTIVE_CHANNEL_CLEARED;
 8000f7e:	2300      	movs	r3, #0
 8000f80:	7723      	strb	r3, [r4, #28]
      }
    }
  }
  /* Capture compare 2 event */
  if (__HAL_TIM_GET_FLAG(htim, TIM_FLAG_CC2) != RESET)
 8000f82:	6823      	ldr	r3, [r4, #0]
 8000f84:	691a      	ldr	r2, [r3, #16]
 8000f86:	0750      	lsls	r0, r2, #29
 8000f88:	d510      	bpl.n	8000fac <HAL_TIM_IRQHandler+0x54>
  {
    if (__HAL_TIM_GET_IT_SOURCE(htim, TIM_IT_CC2) != RESET)
 8000f8a:	68da      	ldr	r2, [r3, #12]
 8000f8c:	0751      	lsls	r1, r2, #29
 8000f8e:	d50d      	bpl.n	8000fac <HAL_TIM_IRQHandler+0x54>
    {
      __HAL_TIM_CLEAR_IT(htim, TIM_IT_CC2);
 8000f90:	f06f 0204 	mvn.w	r2, #4
 8000f94:	611a      	str	r2, [r3, #16]
      htim->Channel = HAL_TIM_ACTIVE_CHANNEL_2;
 8000f96:	2202      	movs	r2, #2
      /* Input capture event */
      if ((htim->Instance->CCMR1 & TIM_CCMR1_CC2S) != 0x00U)
 8000f98:	699b      	ldr	r3, [r3, #24]
      htim->Channel = HAL_TIM_ACTIVE_CHANNEL_2;
 8000f9a:	7722      	strb	r2, [r4, #28]
      if ((htim->Instance->CCMR1 & TIM_CCMR1_CC2S) != 0x00U)
 8000f9c:	f413 7f40 	tst.w	r3, #768	; 0x300
      {
#if (USE_HAL_TIM_REGISTER_CALLBACKS == 1)
        htim->IC_CaptureCallback(htim);
#else
        HAL_TIM_IC_CaptureCallback(htim);
 8000fa0:	4620      	mov	r0, r4
      if ((htim->Instance->CCMR1 & TIM_CCMR1_CC2S) != 0x00U)
 8000fa2:	d068      	beq.n	8001076 <HAL_TIM_IRQHandler+0x11e>
        HAL_TIM_IC_CaptureCallback(htim);
 8000fa4:	f7ff ffd5 	bl	8000f52 <HAL_TIM_IC_CaptureCallback>
#else
        HAL_TIM_OC_DelayElapsedCallback(htim);
        HAL_TIM_PWM_PulseFinishedCallback(htim);
#endif /* USE_HAL_TIM_REGISTER_CALLBACKS */
      }
      htim->Channel = HAL_TIM_ACTIVE_CHANNEL_CLEARED;
 8000fa8:	2300      	movs	r3, #0
 8000faa:	7723      	strb	r3, [r4, #28]
    }
  }
  /* Capture compare 3 event */
  if (__HAL_TIM_GET_FLAG(htim, TIM_FLAG_CC3) != RESET)
 8000fac:	6823      	ldr	r3, [r4, #0]
 8000fae:	691a      	ldr	r2, [r3, #16]
 8000fb0:	0712      	lsls	r2, r2, #28
 8000fb2:	d50f      	bpl.n	8000fd4 <HAL_TIM_IRQHandler+0x7c>
  {
    if (__HAL_TIM_GET_IT_SOURCE(htim, TIM_IT_CC3) != RESET)
 8000fb4:	68da      	ldr	r2, [r3, #12]
 8000fb6:	0710      	lsls	r0, r2, #28
 8000fb8:	d50c      	bpl.n	8000fd4 <HAL_TIM_IRQHandler+0x7c>
    {
      __HAL_TIM_CLEAR_IT(htim, TIM_IT_CC3);
 8000fba:	f06f 0208 	mvn.w	r2, #8
 8000fbe:	611a      	str	r2, [r3, #16]
      htim->Channel = HAL_TIM_ACTIVE_CHANNEL_3;
 8000fc0:	2204      	movs	r2, #4
      /* Input capture event */
      if ((htim->Instance->CCMR2 & TIM_CCMR2_CC3S) != 0x00U)
 8000fc2:	69db      	ldr	r3, [r3, #28]
      htim->Channel = HAL_TIM_ACTIVE_CHANNEL_3;
 8000fc4:	7722      	strb	r2, [r4, #28]
      if ((htim->Instance->CCMR2 & TIM_CCMR2_CC3S) != 0x00U)
 8000fc6:	0799      	lsls	r1, r3, #30
      {
#if (USE_HAL_TIM_REGISTER_CALLBACKS == 1)
        htim->IC_CaptureCallback(htim);
#else
        HAL_TIM_IC_CaptureCallback(htim);
 8000fc8:	4620      	mov	r0, r4
      if ((htim->Instance->CCMR2 & TIM_CCMR2_CC3S) != 0x00U)
 8000fca:	d05a      	beq.n	8001082 <HAL_TIM_IRQHandler+0x12a>
        HAL_TIM_IC_CaptureCallback(htim);
 8000fcc:	f7ff ffc1 	bl	8000f52 <HAL_TIM_IC_CaptureCallback>
#else
        HAL_TIM_OC_DelayElapsedCallback(htim);
        HAL_TIM_PWM_PulseFinishedCallback(htim);
#endif /* USE_HAL_TIM_REGISTER_CALLBACKS */
      }
      htim->Channel = HAL_TIM_ACTIVE_CHANNEL_CLEARED;
 8000fd0:	2300      	movs	r3, #0
 8000fd2:	7723      	strb	r3, [r4, #28]
    }
  }
  /* Capture compare 4 event */
  if (__HAL_TIM_GET_FLAG(htim, TIM_FLAG_CC4) != RESET)
 8000fd4:	6823      	ldr	r3, [r4, #0]
 8000fd6:	691a      	ldr	r2, [r3, #16]
 8000fd8:	06d2      	lsls	r2, r2, #27
 8000fda:	d510      	bpl.n	8000ffe <HAL_TIM_IRQHandler+0xa6>
  {
    if (__HAL_TIM_GET_IT_SOURCE(htim, TIM_IT_CC4) != RESET)
 8000fdc:	68da      	ldr	r2, [r3, #12]
 8000fde:	06d0      	lsls	r0, r2, #27
 8000fe0:	d50d      	bpl.n	8000ffe <HAL_TIM_IRQHandler+0xa6>
    {
      __HAL_TIM_CLEAR_IT(htim, TIM_IT_CC4);
 8000fe2:	f06f 0210 	mvn.w	r2, #16
 8000fe6:	611a      	str	r2, [r3, #16]
      htim->Channel = HAL_TIM_ACTIVE_CHANNEL_4;
 8000fe8:	2208      	movs	r2, #8
      /* Input capture event */
      if ((htim->Instance->CCMR2 & TIM_CCMR2_CC4S) != 0x00U)
 8000fea:	69db      	ldr	r3, [r3, #28]
      htim->Channel = HAL_TIM_ACTIVE_CHANNEL_4;
 8000fec:	7722      	strb	r2, [r4, #28]
      if ((htim->Instance->CCMR2 & TIM_CCMR2_CC4S) != 0x00U)
 8000fee:	f413 7f40 	tst.w	r3, #768	; 0x300
      {
#if (USE_HAL_TIM_REGISTER_CALLBACKS == 1)
        htim->IC_CaptureCallback(htim);
#else
        HAL_TIM_IC_CaptureCallback(htim);
 8000ff2:	4620      	mov	r0, r4
      if ((htim->Instance->CCMR2 & TIM_CCMR2_CC4S) != 0x00U)
 8000ff4:	d04b      	beq.n	800108e <HAL_TIM_IRQHandler+0x136>
        HAL_TIM_IC_CaptureCallback(htim);
 8000ff6:	f7ff ffac 	bl	8000f52 <HAL_TIM_IC_CaptureCallback>
#else
        HAL_TIM_OC_DelayElapsedCallback(htim);
        HAL_TIM_PWM_PulseFinishedCallback(htim);
#endif /* USE_HAL_TIM_REGISTER_CALLBACKS */
      }
      htim->Channel = HAL_TIM_ACTIVE_CHANNEL_CLEARED;
 8000ffa:	2300      	movs	r3, #0
 8000ffc:	7723      	strb	r3, [r4, #28]
    }
  }
  /* TIM Update event */
  if (__HAL_TIM_GET_FLAG(htim, TIM_FLAG_UPDATE) != RESET)
 8000ffe:	6823      	ldr	r3, [r4, #0]
 8001000:	691a      	ldr	r2, [r3, #16]
 8001002:	07d1      	lsls	r1, r2, #31
 8001004:	d508      	bpl.n	8001018 <HAL_TIM_IRQHandler+0xc0>
  {
    if (__HAL_TIM_GET_IT_SOURCE(htim, TIM_IT_UPDATE) != RESET)
 8001006:	68da      	ldr	r2, [r3, #12]
 8001008:	07d2      	lsls	r2, r2, #31
 800100a:	d505      	bpl.n	8001018 <HAL_TIM_IRQHandler+0xc0>
    {
      __HAL_TIM_CLEAR_IT(htim, TIM_IT_UPDATE);
 800100c:	f06f 0201 	mvn.w	r2, #1
#if (USE_HAL_TIM_REGISTER_CALLBACKS == 1)
      htim->PeriodElapsedCallback(htim);
#else
      HAL_TIM_PeriodElapsedCallback(htim);
 8001010:	4620      	mov	r0, r4
      __HAL_TIM_CLEAR_IT(htim, TIM_IT_UPDATE);
 8001012:	611a      	str	r2, [r3, #16]
      HAL_TIM_PeriodElapsedCallback(htim);
 8001014:	f000 fe2a 	bl	8001c6c <HAL_TIM_PeriodElapsedCallback>
#endif /* USE_HAL_TIM_REGISTER_CALLBACKS */
    }
  }
  /* TIM Break input event */
  if (__HAL_TIM_GET_FLAG(htim, TIM_FLAG_BREAK) != RESET)
 8001018:	6823      	ldr	r3, [r4, #0]
 800101a:	691a      	ldr	r2, [r3, #16]
 800101c:	0610      	lsls	r0, r2, #24
 800101e:	d508      	bpl.n	8001032 <HAL_TIM_IRQHandler+0xda>
  {
    if (__HAL_TIM_GET_IT_SOURCE(htim, TIM_IT_BREAK) != RESET)
 8001020:	68da      	ldr	r2, [r3, #12]
 8001022:	0611      	lsls	r1, r2, #24
 8001024:	d505      	bpl.n	8001032 <HAL_TIM_IRQHandler+0xda>
    {
      __HAL_TIM_CLEAR_IT(htim, TIM_IT_BREAK);
 8001026:	f06f 0280 	mvn.w	r2, #128	; 0x80
#if (USE_HAL_TIM_REGISTER_CALLBACKS == 1)
      htim->BreakCallback(htim);
#else
      HAL_TIMEx_BreakCallback(htim);
 800102a:	4620      	mov	r0, r4
      __HAL_TIM_CLEAR_IT(htim, TIM_IT_BREAK);
 800102c:	611a      	str	r2, [r3, #16]
      HAL_TIMEx_BreakCallback(htim);
 800102e:	f000 f944 	bl	80012ba <HAL_TIMEx_BreakCallback>
#endif /* USE_HAL_TIM_REGISTER_CALLBACKS */
    }
  }
  /* TIM Trigger detection event */
  if (__HAL_TIM_GET_FLAG(htim, TIM_FLAG_TRIGGER) != RESET)
 8001032:	6823      	ldr	r3, [r4, #0]
 8001034:	691a      	ldr	r2, [r3, #16]
 8001036:	0652      	lsls	r2, r2, #25
 8001038:	d508      	bpl.n	800104c <HAL_TIM_IRQHandler+0xf4>
  {
    if (__HAL_TIM_GET_IT_SOURCE(htim, TIM_IT_TRIGGER) != RESET)
 800103a:	68da      	ldr	r2, [r3, #12]
 800103c:	0650      	lsls	r0, r2, #25
 800103e:	d505      	bpl.n	800104c <HAL_TIM_IRQHandler+0xf4>
    {
      __HAL_TIM_CLEAR_IT(htim, TIM_IT_TRIGGER);
 8001040:	f06f 0240 	mvn.w	r2, #64	; 0x40
#if (USE_HAL_TIM_REGISTER_CALLBACKS == 1)
      htim->TriggerCallback(htim);
#else
      HAL_TIM_TriggerCallback(htim);
 8001044:	4620      	mov	r0, r4
      __HAL_TIM_CLEAR_IT(htim, TIM_IT_TRIGGER);
 8001046:	611a      	str	r2, [r3, #16]
      HAL_TIM_TriggerCallback(htim);
 8001048:	f7ff ff85 	bl	8000f56 <HAL_TIM_TriggerCallback>
#endif /* USE_HAL_TIM_REGISTER_CALLBACKS */
    }
  }
  /* TIM commutation event */
  if (__HAL_TIM_GET_FLAG(htim, TIM_FLAG_COM) != RESET)
 800104c:	6823      	ldr	r3, [r4, #0]
 800104e:	691a      	ldr	r2, [r3, #16]
 8001050:	0691      	lsls	r1, r2, #26
 8001052:	d522      	bpl.n	800109a <HAL_TIM_IRQHandler+0x142>
  {
    if (__HAL_TIM_GET_IT_SOURCE(htim, TIM_IT_COM) != RESET)
 8001054:	68da      	ldr	r2, [r3, #12]
 8001056:	0692      	lsls	r2, r2, #26
 8001058:	d51f      	bpl.n	800109a <HAL_TIM_IRQHandler+0x142>
    {
      __HAL_TIM_CLEAR_IT(htim, TIM_FLAG_COM);
 800105a:	f06f 0220 	mvn.w	r2, #32
#if (USE_HAL_TIM_REGISTER_CALLBACKS == 1)
      htim->CommutationCallback(htim);
#else
      HAL_TIMEx_CommutCallback(htim);
 800105e:	4620      	mov	r0, r4
#endif /* USE_HAL_TIM_REGISTER_CALLBACKS */
    }
  }
}
 8001060:	e8bd 4010 	ldmia.w	sp!, {r4, lr}
      __HAL_TIM_CLEAR_IT(htim, TIM_FLAG_COM);
 8001064:	611a      	str	r2, [r3, #16]
      HAL_TIMEx_CommutCallback(htim);
 8001066:	f000 b927 	b.w	80012b8 <HAL_TIMEx_CommutCallback>
          HAL_TIM_OC_DelayElapsedCallback(htim);
 800106a:	f7ff ff71 	bl	8000f50 <HAL_TIM_OC_DelayElapsedCallback>
          HAL_TIM_PWM_PulseFinishedCallback(htim);
 800106e:	4620      	mov	r0, r4
 8001070:	f7ff ff70 	bl	8000f54 <HAL_TIM_PWM_PulseFinishedCallback>
 8001074:	e783      	b.n	8000f7e <HAL_TIM_IRQHandler+0x26>
        HAL_TIM_OC_DelayElapsedCallback(htim);
 8001076:	f7ff ff6b 	bl	8000f50 <HAL_TIM_OC_DelayElapsedCallback>
        HAL_TIM_PWM_PulseFinishedCallback(htim);
 800107a:	4620      	mov	r0, r4
 800107c:	f7ff ff6a 	bl	8000f54 <HAL_TIM_PWM_PulseFinishedCallback>
 8001080:	e792      	b.n	8000fa8 <HAL_TIM_IRQHandler+0x50>
        HAL_TIM_OC_DelayElapsedCallback(htim);
 8001082:	f7ff ff65 	bl	8000f50 <HAL_TIM_OC_DelayElapsedCallback>
        HAL_TIM_PWM_PulseFinishedCallback(htim);
 8001086:	4620      	mov	r0, r4
 8001088:	f7ff ff64 	bl	8000f54 <HAL_TIM_PWM_PulseFinishedCallback>
 800108c:	e7a0      	b.n	8000fd0 <HAL_TIM_IRQHandler+0x78>
        HAL_TIM_OC_DelayElapsedCallback(htim);
 800108e:	f7ff ff5f 	bl	8000f50 <HAL_TIM_OC_DelayElapsedCallback>
        HAL_TIM_PWM_PulseFinishedCallback(htim);
 8001092:	4620      	mov	r0, r4
 8001094:	f7ff ff5e 	bl	8000f54 <HAL_TIM_PWM_PulseFinishedCallback>
 8001098:	e7af      	b.n	8000ffa <HAL_TIM_IRQHandler+0xa2>
 800109a:	bd10      	pop	{r4, pc}

0800109c <TIM_Base_SetConfig>:
{
  uint32_t tmpcr1;
  tmpcr1 = TIMx->CR1;

  /* Set TIM Time Base Unit parameters ---------------------------------------*/
  if (IS_TIM_COUNTER_MODE_SELECT_INSTANCE(TIMx))
 800109c:	4a1a      	ldr	r2, [pc, #104]	; (8001108 <TIM_Base_SetConfig+0x6c>)
  tmpcr1 = TIMx->CR1;
 800109e:	6803      	ldr	r3, [r0, #0]
  if (IS_TIM_COUNTER_MODE_SELECT_INSTANCE(TIMx))
 80010a0:	4290      	cmp	r0, r2
 80010a2:	d00a      	beq.n	80010ba <TIM_Base_SetConfig+0x1e>
 80010a4:	f1b0 4f80 	cmp.w	r0, #1073741824	; 0x40000000
 80010a8:	d007      	beq.n	80010ba <TIM_Base_SetConfig+0x1e>
 80010aa:	f5a2 3294 	sub.w	r2, r2, #75776	; 0x12800
 80010ae:	4290      	cmp	r0, r2
 80010b0:	d003      	beq.n	80010ba <TIM_Base_SetConfig+0x1e>
 80010b2:	f502 6280 	add.w	r2, r2, #1024	; 0x400
 80010b6:	4290      	cmp	r0, r2
 80010b8:	d115      	bne.n	80010e6 <TIM_Base_SetConfig+0x4a>
  {
    /* Select the Counter Mode */
    tmpcr1 &= ~(TIM_CR1_DIR | TIM_CR1_CMS);
    tmpcr1 |= Structure->CounterMode;
 80010ba:	684a      	ldr	r2, [r1, #4]
    tmpcr1 &= ~(TIM_CR1_DIR | TIM_CR1_CMS);
 80010bc:	f023 0370 	bic.w	r3, r3, #112	; 0x70
    tmpcr1 |= Structure->CounterMode;
 80010c0:	4313      	orrs	r3, r2
  }

  if (IS_TIM_CLOCK_DIVISION_INSTANCE(TIMx))
 80010c2:	4a11      	ldr	r2, [pc, #68]	; (8001108 <TIM_Base_SetConfig+0x6c>)
 80010c4:	4290      	cmp	r0, r2
 80010c6:	d00a      	beq.n	80010de <TIM_Base_SetConfig+0x42>
 80010c8:	f1b0 4f80 	cmp.w	r0, #1073741824	; 0x40000000
 80010cc:	d007      	beq.n	80010de <TIM_Base_SetConfig+0x42>
 80010ce:	f5a2 3294 	sub.w	r2, r2, #75776	; 0x12800
 80010d2:	4290      	cmp	r0, r2
 80010d4:	d003      	beq.n	80010de <TIM_Base_SetConfig+0x42>
 80010d6:	f502 6280 	add.w	r2, r2, #1024	; 0x400
 80010da:	4290      	cmp	r0, r2
 80010dc:	d103      	bne.n	80010e6 <TIM_Base_SetConfig+0x4a>
  {
    /* Set the clock division */
    tmpcr1 &= ~TIM_CR1_CKD;
    tmpcr1 |= (uint32_t)Structure->ClockDivision;
 80010de:	68ca      	ldr	r2, [r1, #12]
    tmpcr1 &= ~TIM_CR1_CKD;
 80010e0:	f423 7340 	bic.w	r3, r3, #768	; 0x300
    tmpcr1 |= (uint32_t)Structure->ClockDivision;
 80010e4:	4313      	orrs	r3, r2
  }

  /* Set the auto-reload preload */
  MODIFY_REG(tmpcr1, TIM_CR1_ARPE, Structure->AutoReloadPreload);
 80010e6:	694a      	ldr	r2, [r1, #20]
 80010e8:	f023 0380 	bic.w	r3, r3, #128	; 0x80
 80010ec:	4313      	orrs	r3, r2

  TIMx->CR1 = tmpcr1;
 80010ee:	6003      	str	r3, [r0, #0]

  /* Set the Autoreload value */
  TIMx->ARR = (uint32_t)Structure->Period ;
 80010f0:	688b      	ldr	r3, [r1, #8]
 80010f2:	62c3      	str	r3, [r0, #44]	; 0x2c

  /* Set the Prescaler value */
  TIMx->PSC = Structure->Prescaler;
 80010f4:	680b      	ldr	r3, [r1, #0]
 80010f6:	6283      	str	r3, [r0, #40]	; 0x28

  if (IS_TIM_REPETITION_COUNTER_INSTANCE(TIMx))
 80010f8:	4b03      	ldr	r3, [pc, #12]	; (8001108 <TIM_Base_SetConfig+0x6c>)
 80010fa:	4298      	cmp	r0, r3
  {
    /* Set the Repetition Counter value */
    TIMx->RCR = Structure->RepetitionCounter;
 80010fc:	bf04      	itt	eq
 80010fe:	690b      	ldreq	r3, [r1, #16]
 8001100:	6303      	streq	r3, [r0, #48]	; 0x30
  }

  /* Generate an update event to reload the Prescaler
     and the repetition counter (only for advanced timer) value immediately */
  TIMx->EGR = TIM_EGR_UG;
 8001102:	2301      	movs	r3, #1
 8001104:	6143      	str	r3, [r0, #20]
 8001106:	4770      	bx	lr
 8001108:	40012c00 	.word	0x40012c00

0800110c <HAL_TIM_Base_Init>:
{
 800110c:	b510      	push	{r4, lr}
  if (htim == NULL)
 800110e:	4604      	mov	r4, r0
 8001110:	b1a0      	cbz	r0, 800113c <HAL_TIM_Base_Init+0x30>
  if (htim->State == HAL_TIM_STATE_RESET)
 8001112:	f890 303d 	ldrb.w	r3, [r0, #61]	; 0x3d
 8001116:	f003 02ff 	and.w	r2, r3, #255	; 0xff
 800111a:	b91b      	cbnz	r3, 8001124 <HAL_TIM_Base_Init+0x18>
    htim->Lock = HAL_UNLOCKED;
 800111c:	f880 203c 	strb.w	r2, [r0, #60]	; 0x3c
    HAL_TIM_Base_MspInit(htim);
 8001120:	f000 fe32 	bl	8001d88 <HAL_TIM_Base_MspInit>
  htim->State = HAL_TIM_STATE_BUSY;
 8001124:	2302      	movs	r3, #2
  TIM_Base_SetConfig(htim->Instance, &htim->Init);
 8001126:	6820      	ldr	r0, [r4, #0]
  htim->State = HAL_TIM_STATE_BUSY;
 8001128:	f884 303d 	strb.w	r3, [r4, #61]	; 0x3d
  TIM_Base_SetConfig(htim->Instance, &htim->Init);
 800112c:	1d21      	adds	r1, r4, #4
 800112e:	f7ff ffb5 	bl	800109c <TIM_Base_SetConfig>
  htim->State = HAL_TIM_STATE_READY;
 8001132:	2301      	movs	r3, #1
  return HAL_OK;
 8001134:	2000      	movs	r0, #0
  htim->State = HAL_TIM_STATE_READY;
 8001136:	f884 303d 	strb.w	r3, [r4, #61]	; 0x3d
  return HAL_OK;
 800113a:	bd10      	pop	{r4, pc}
    return HAL_ERROR;
 800113c:	2001      	movs	r0, #1
}
 800113e:	bd10      	pop	{r4, pc}

08001140 <TIM_ETR_SetConfig>:
  *          This parameter must be a value between 0x00 and 0x0F
  * @retval None
  */
void TIM_ETR_SetConfig(TIM_TypeDef *TIMx, uint32_t TIM_ExtTRGPrescaler,
                       uint32_t TIM_ExtTRGPolarity, uint32_t ExtTRGFilter)
{
 8001140:	b510      	push	{r4, lr}
  uint32_t tmpsmcr;

  tmpsmcr = TIMx->SMCR;
 8001142:	6884      	ldr	r4, [r0, #8]

  /* Reset the ETR Bits */
  tmpsmcr &= ~(TIM_SMCR_ETF | TIM_SMCR_ETPS | TIM_SMCR_ECE | TIM_SMCR_ETP);

  /* Set the Prescaler, the Filter value and the Polarity */
  tmpsmcr |= (uint32_t)(TIM_ExtTRGPrescaler | (TIM_ExtTRGPolarity | (ExtTRGFilter << 8U)));
 8001144:	430a      	orrs	r2, r1
  tmpsmcr &= ~(TIM_SMCR_ETF | TIM_SMCR_ETPS | TIM_SMCR_ECE | TIM_SMCR_ETP);
 8001146:	f424 447f 	bic.w	r4, r4, #65280	; 0xff00
  tmpsmcr |= (uint32_t)(TIM_ExtTRGPrescaler | (TIM_ExtTRGPolarity | (ExtTRGFilter << 8U)));
 800114a:	ea42 2303 	orr.w	r3, r2, r3, lsl #8
 800114e:	4323      	orrs	r3, r4

  /* Write to TIMx SMCR */
  TIMx->SMCR = tmpsmcr;
 8001150:	6083      	str	r3, [r0, #8]
 8001152:	bd10      	pop	{r4, pc}

08001154 <HAL_TIM_ConfigClockSource>:
  __HAL_LOCK(htim);
 8001154:	f890 303c 	ldrb.w	r3, [r0, #60]	; 0x3c
{
 8001158:	b570      	push	{r4, r5, r6, lr}
  __HAL_LOCK(htim);
 800115a:	2b01      	cmp	r3, #1
{
 800115c:	4604      	mov	r4, r0
 800115e:	f04f 0002 	mov.w	r0, #2
  __HAL_LOCK(htim);
 8001162:	d019      	beq.n	8001198 <HAL_TIM_ConfigClockSource+0x44>
 8001164:	2301      	movs	r3, #1
  htim->State = HAL_TIM_STATE_BUSY;
 8001166:	f884 003d 	strb.w	r0, [r4, #61]	; 0x3d
  tmpsmcr = htim->Instance->SMCR;
 800116a:	6820      	ldr	r0, [r4, #0]
  __HAL_LOCK(htim);
 800116c:	f884 303c 	strb.w	r3, [r4, #60]	; 0x3c
  tmpsmcr = htim->Instance->SMCR;
 8001170:	6883      	ldr	r3, [r0, #8]
  tmpsmcr &= ~(TIM_SMCR_ETF | TIM_SMCR_ETPS | TIM_SMCR_ECE | TIM_SMCR_ETP);
 8001172:	f423 437f 	bic.w	r3, r3, #65280	; 0xff00
 8001176:	f023 0377 	bic.w	r3, r3, #119	; 0x77
  htim->Instance->SMCR = tmpsmcr;
 800117a:	6083      	str	r3, [r0, #8]
  switch (sClockSourceConfig->ClockSource)
 800117c:	680b      	ldr	r3, [r1, #0]
 800117e:	2b40      	cmp	r3, #64	; 0x40
 8001180:	d065      	beq.n	800124e <HAL_TIM_ConfigClockSource+0xfa>
 8001182:	d815      	bhi.n	80011b0 <HAL_TIM_ConfigClockSource+0x5c>
 8001184:	2b10      	cmp	r3, #16
 8001186:	d00c      	beq.n	80011a2 <HAL_TIM_ConfigClockSource+0x4e>
 8001188:	d807      	bhi.n	800119a <HAL_TIM_ConfigClockSource+0x46>
 800118a:	b153      	cbz	r3, 80011a2 <HAL_TIM_ConfigClockSource+0x4e>
  htim->State = HAL_TIM_STATE_READY;
 800118c:	2301      	movs	r3, #1
  __HAL_UNLOCK(htim);
 800118e:	2000      	movs	r0, #0
  htim->State = HAL_TIM_STATE_READY;
 8001190:	f884 303d 	strb.w	r3, [r4, #61]	; 0x3d
  __HAL_UNLOCK(htim);
 8001194:	f884 003c 	strb.w	r0, [r4, #60]	; 0x3c
}
 8001198:	bd70      	pop	{r4, r5, r6, pc}
  switch (sClockSourceConfig->ClockSource)
 800119a:	2b20      	cmp	r3, #32
 800119c:	d001      	beq.n	80011a2 <HAL_TIM_ConfigClockSource+0x4e>
 800119e:	2b30      	cmp	r3, #48	; 0x30
 80011a0:	d1f4      	bne.n	800118c <HAL_TIM_ConfigClockSource+0x38>
  tmpsmcr = TIMx->SMCR;
 80011a2:	6882      	ldr	r2, [r0, #8]
  tmpsmcr |= (InputTriggerSource | TIM_SLAVEMODE_EXTERNAL1);
 80011a4:	f043 0307 	orr.w	r3, r3, #7
  tmpsmcr &= ~TIM_SMCR_TS;
 80011a8:	f022 0270 	bic.w	r2, r2, #112	; 0x70
  tmpsmcr |= (InputTriggerSource | TIM_SLAVEMODE_EXTERNAL1);
 80011ac:	4313      	orrs	r3, r2
 80011ae:	e01a      	b.n	80011e6 <HAL_TIM_ConfigClockSource+0x92>
  switch (sClockSourceConfig->ClockSource)
 80011b0:	2b60      	cmp	r3, #96	; 0x60
 80011b2:	d034      	beq.n	800121e <HAL_TIM_ConfigClockSource+0xca>
 80011b4:	d819      	bhi.n	80011ea <HAL_TIM_ConfigClockSource+0x96>
 80011b6:	2b50      	cmp	r3, #80	; 0x50
 80011b8:	d1e8      	bne.n	800118c <HAL_TIM_ConfigClockSource+0x38>
      TIM_TI1_ConfigInputStage(htim->Instance,
 80011ba:	684a      	ldr	r2, [r1, #4]
 80011bc:	68ce      	ldr	r6, [r1, #12]
  tmpccer = TIMx->CCER;
 80011be:	6a01      	ldr	r1, [r0, #32]
  TIMx->CCER &= ~TIM_CCER_CC1E;
 80011c0:	6a05      	ldr	r5, [r0, #32]
  tmpccer &= ~(TIM_CCER_CC1P | TIM_CCER_CC1NP);
 80011c2:	f021 010a 	bic.w	r1, r1, #10
  TIMx->CCER &= ~TIM_CCER_CC1E;
 80011c6:	f025 0501 	bic.w	r5, r5, #1
 80011ca:	6205      	str	r5, [r0, #32]
  tmpccmr1 = TIMx->CCMR1;
 80011cc:	6983      	ldr	r3, [r0, #24]
  tmpccer |= TIM_ICPolarity;
 80011ce:	430a      	orrs	r2, r1
  tmpccmr1 &= ~TIM_CCMR1_IC1F;
 80011d0:	f023 03f0 	bic.w	r3, r3, #240	; 0xf0
  tmpccmr1 |= (TIM_ICFilter << 4U);
 80011d4:	ea43 1306 	orr.w	r3, r3, r6, lsl #4
  TIMx->CCMR1 = tmpccmr1;
 80011d8:	6183      	str	r3, [r0, #24]
  TIMx->CCER = tmpccer;
 80011da:	6202      	str	r2, [r0, #32]
  tmpsmcr = TIMx->SMCR;
 80011dc:	6883      	ldr	r3, [r0, #8]
  tmpsmcr &= ~TIM_SMCR_TS;
 80011de:	f023 0370 	bic.w	r3, r3, #112	; 0x70
  tmpsmcr |= (InputTriggerSource | TIM_SLAVEMODE_EXTERNAL1);
 80011e2:	f043 0357 	orr.w	r3, r3, #87	; 0x57
  TIMx->SMCR = tmpsmcr;
 80011e6:	6083      	str	r3, [r0, #8]
 80011e8:	e7d0      	b.n	800118c <HAL_TIM_ConfigClockSource+0x38>
  switch (sClockSourceConfig->ClockSource)
 80011ea:	2b70      	cmp	r3, #112	; 0x70
 80011ec:	d00c      	beq.n	8001208 <HAL_TIM_ConfigClockSource+0xb4>
 80011ee:	f5b3 5f00 	cmp.w	r3, #8192	; 0x2000
 80011f2:	d1cb      	bne.n	800118c <HAL_TIM_ConfigClockSource+0x38>
      TIM_ETR_SetConfig(htim->Instance,
 80011f4:	68cb      	ldr	r3, [r1, #12]
 80011f6:	684a      	ldr	r2, [r1, #4]
 80011f8:	6889      	ldr	r1, [r1, #8]
 80011fa:	f7ff ffa1 	bl	8001140 <TIM_ETR_SetConfig>
      htim->Instance->SMCR |= TIM_SMCR_ECE;
 80011fe:	6822      	ldr	r2, [r4, #0]
 8001200:	6893      	ldr	r3, [r2, #8]
 8001202:	f443 4380 	orr.w	r3, r3, #16384	; 0x4000
 8001206:	e008      	b.n	800121a <HAL_TIM_ConfigClockSource+0xc6>
      TIM_ETR_SetConfig(htim->Instance,
 8001208:	68cb      	ldr	r3, [r1, #12]
 800120a:	684a      	ldr	r2, [r1, #4]
 800120c:	6889      	ldr	r1, [r1, #8]
 800120e:	f7ff ff97 	bl	8001140 <TIM_ETR_SetConfig>
      tmpsmcr = htim->Instance->SMCR;
 8001212:	6822      	ldr	r2, [r4, #0]
 8001214:	6893      	ldr	r3, [r2, #8]
      tmpsmcr |= (TIM_SLAVEMODE_EXTERNAL1 | TIM_CLOCKSOURCE_ETRMODE1);
 8001216:	f043 0377 	orr.w	r3, r3, #119	; 0x77
      htim->Instance->SMCR |= TIM_SMCR_ECE;
 800121a:	6093      	str	r3, [r2, #8]
      break;
 800121c:	e7b6      	b.n	800118c <HAL_TIM_ConfigClockSource+0x38>
      TIM_TI2_ConfigInputStage(htim->Instance,
 800121e:	684d      	ldr	r5, [r1, #4]
 8001220:	68ce      	ldr	r6, [r1, #12]
  TIMx->CCER &= ~TIM_CCER_CC2E;
 8001222:	6a01      	ldr	r1, [r0, #32]
 8001224:	f021 0110 	bic.w	r1, r1, #16
 8001228:	6201      	str	r1, [r0, #32]
  tmpccmr1 = TIMx->CCMR1;
 800122a:	6982      	ldr	r2, [r0, #24]
  tmpccer = TIMx->CCER;
 800122c:	6a03      	ldr	r3, [r0, #32]
  tmpccmr1 &= ~TIM_CCMR1_IC2F;
 800122e:	f422 4270 	bic.w	r2, r2, #61440	; 0xf000
  tmpccer &= ~(TIM_CCER_CC2P | TIM_CCER_CC2NP);
 8001232:	f023 03a0 	bic.w	r3, r3, #160	; 0xa0
  tmpccer |= (TIM_ICPolarity << 4U);
 8001236:	ea43 1305 	orr.w	r3, r3, r5, lsl #4
  tmpccmr1 |= (TIM_ICFilter << 12U);
 800123a:	ea42 3206 	orr.w	r2, r2, r6, lsl #12
  TIMx->CCMR1 = tmpccmr1 ;
 800123e:	6182      	str	r2, [r0, #24]
  TIMx->CCER = tmpccer;
 8001240:	6203      	str	r3, [r0, #32]
  tmpsmcr = TIMx->SMCR;
 8001242:	6883      	ldr	r3, [r0, #8]
  tmpsmcr &= ~TIM_SMCR_TS;
 8001244:	f023 0370 	bic.w	r3, r3, #112	; 0x70
  tmpsmcr |= (InputTriggerSource | TIM_SLAVEMODE_EXTERNAL1);
 8001248:	f043 0367 	orr.w	r3, r3, #103	; 0x67
 800124c:	e7cb      	b.n	80011e6 <HAL_TIM_ConfigClockSource+0x92>
      TIM_TI1_ConfigInputStage(htim->Instance,
 800124e:	684a      	ldr	r2, [r1, #4]
 8001250:	68ce      	ldr	r6, [r1, #12]
  tmpccer = TIMx->CCER;
 8001252:	6a01      	ldr	r1, [r0, #32]
  TIMx->CCER &= ~TIM_CCER_CC1E;
 8001254:	6a05      	ldr	r5, [r0, #32]
  tmpccer &= ~(TIM_CCER_CC1P | TIM_CCER_CC1NP);
 8001256:	f021 010a 	bic.w	r1, r1, #10
  TIMx->CCER &= ~TIM_CCER_CC1E;
 800125a:	f025 0501 	bic.w	r5, r5, #1
 800125e:	6205      	str	r5, [r0, #32]
  tmpccmr1 = TIMx->CCMR1;
 8001260:	6983      	ldr	r3, [r0, #24]
  tmpccer |= TIM_ICPolarity;
 8001262:	430a      	orrs	r2, r1
  tmpccmr1 &= ~TIM_CCMR1_IC1F;
 8001264:	f023 03f0 	bic.w	r3, r3, #240	; 0xf0
  tmpccmr1 |= (TIM_ICFilter << 4U);
 8001268:	ea43 1306 	orr.w	r3, r3, r6, lsl #4
  TIMx->CCMR1 = tmpccmr1;
 800126c:	6183      	str	r3, [r0, #24]
  TIMx->CCER = tmpccer;
 800126e:	6202      	str	r2, [r0, #32]
  tmpsmcr = TIMx->SMCR;
 8001270:	6883      	ldr	r3, [r0, #8]
  tmpsmcr &= ~TIM_SMCR_TS;
 8001272:	f023 0370 	bic.w	r3, r3, #112	; 0x70
  tmpsmcr |= (InputTriggerSource | TIM_SLAVEMODE_EXTERNAL1);
 8001276:	f043 0347 	orr.w	r3, r3, #71	; 0x47
 800127a:	e7b4      	b.n	80011e6 <HAL_TIM_ConfigClockSource+0x92>

0800127c <HAL_TIMEx_MasterConfigSynchronization>:
  assert_param(IS_TIM_SYNCHRO_INSTANCE(htim->Instance));
  assert_param(IS_TIM_TRGO_SOURCE(sMasterConfig->MasterOutputTrigger));
  assert_param(IS_TIM_MSM_STATE(sMasterConfig->MasterSlaveMode));

  /* Check input state */
  __HAL_LOCK(htim);
 800127c:	f890 303c 	ldrb.w	r3, [r0, #60]	; 0x3c
{
 8001280:	b530      	push	{r4, r5, lr}
  __HAL_LOCK(htim);
 8001282:	2b01      	cmp	r3, #1
 8001284:	f04f 0302 	mov.w	r3, #2
 8001288:	d014      	beq.n	80012b4 <HAL_TIMEx_MasterConfigSynchronization+0x38>

  /* Change the handler state */
  htim->State = HAL_TIM_STATE_BUSY;

  /* Get the TIMx CR2 register value */
  tmpcr2 = htim->Instance->CR2;
 800128a:	6804      	ldr	r4, [r0, #0]
  htim->State = HAL_TIM_STATE_BUSY;
 800128c:	f880 303d 	strb.w	r3, [r0, #61]	; 0x3d
  tmpcr2 = htim->Instance->CR2;
 8001290:	6862      	ldr	r2, [r4, #4]

  /* Get the TIMx SMCR register value */
  tmpsmcr = htim->Instance->SMCR;
 8001292:	68a3      	ldr	r3, [r4, #8]

  /* Reset the MMS Bits */
  tmpcr2 &= ~TIM_CR2_MMS;
  /* Select the TRGO source */
  tmpcr2 |=  sMasterConfig->MasterOutputTrigger;
 8001294:	680d      	ldr	r5, [r1, #0]

  /* Reset the MSM Bit */
  tmpsmcr &= ~TIM_SMCR_MSM;
  /* Set master mode */
  tmpsmcr |= sMasterConfig->MasterSlaveMode;
 8001296:	6849      	ldr	r1, [r1, #4]
  tmpcr2 &= ~TIM_CR2_MMS;
 8001298:	f022 0270 	bic.w	r2, r2, #112	; 0x70
  tmpsmcr &= ~TIM_SMCR_MSM;
 800129c:	f023 0380 	bic.w	r3, r3, #128	; 0x80
  tmpsmcr |= sMasterConfig->MasterSlaveMode;
 80012a0:	430b      	orrs	r3, r1
  tmpcr2 |=  sMasterConfig->MasterOutputTrigger;
 80012a2:	432a      	orrs	r2, r5

  /* Update TIMx CR2 */
  htim->Instance->CR2 = tmpcr2;
 80012a4:	6062      	str	r2, [r4, #4]

  /* Update TIMx SMCR */
  htim->Instance->SMCR = tmpsmcr;
 80012a6:	60a3      	str	r3, [r4, #8]

  /* Change the htim state */
  htim->State = HAL_TIM_STATE_READY;
 80012a8:	2301      	movs	r3, #1
 80012aa:	f880 303d 	strb.w	r3, [r0, #61]	; 0x3d

  __HAL_UNLOCK(htim);
 80012ae:	2300      	movs	r3, #0
 80012b0:	f880 303c 	strb.w	r3, [r0, #60]	; 0x3c
  __HAL_LOCK(htim);
 80012b4:	4618      	mov	r0, r3

  return HAL_OK;
}
 80012b6:	bd30      	pop	{r4, r5, pc}

080012b8 <HAL_TIMEx_CommutCallback>:
 80012b8:	4770      	bx	lr

080012ba <HAL_TIMEx_BreakCallback>:
  * @brief  Hall Break detection callback in non-blocking mode
  * @param  htim TIM handle
  * @retval None
  */
__weak void HAL_TIMEx_BreakCallback(TIM_HandleTypeDef *htim)
{
 80012ba:	4770      	bx	lr

080012bc <UART_SetConfig>:
  * @param  huart  Pointer to a UART_HandleTypeDef structure that contains
  *                the configuration information for the specified UART module.
  * @retval None
  */
static void UART_SetConfig(UART_HandleTypeDef *huart)
{
 80012bc:	b538      	push	{r3, r4, r5, lr}
 80012be:	4605      	mov	r5, r0
  assert_param(IS_UART_MODE(huart->Init.Mode));

  /*-------------------------- USART CR2 Configuration -----------------------*/
  /* Configure the UART Stop Bits: Set STOP[13:12] bits
     according to huart->Init.StopBits value */
  MODIFY_REG(huart->Instance->CR2, USART_CR2_STOP, huart->Init.StopBits);
 80012c0:	6803      	ldr	r3, [r0, #0]
 80012c2:	68c1      	ldr	r1, [r0, #12]
 80012c4:	691a      	ldr	r2, [r3, #16]
 80012c6:	2419      	movs	r4, #25
 80012c8:	f422 5240 	bic.w	r2, r2, #12288	; 0x3000
 80012cc:	430a      	orrs	r2, r1
 80012ce:	611a      	str	r2, [r3, #16]
  tmpreg = (uint32_t)huart->Init.WordLength | huart->Init.Parity | huart->Init.Mode | huart->Init.OverSampling;
  MODIFY_REG(huart->Instance->CR1,
             (uint32_t)(USART_CR1_M | USART_CR1_PCE | USART_CR1_PS | USART_CR1_TE | USART_CR1_RE | USART_CR1_OVER8),
             tmpreg);
#else
  tmpreg = (uint32_t)huart->Init.WordLength | huart->Init.Parity | huart->Init.Mode;
 80012d0:	6882      	ldr	r2, [r0, #8]
 80012d2:	6900      	ldr	r0, [r0, #16]
  MODIFY_REG(huart->Instance->CR1,
 80012d4:	68d9      	ldr	r1, [r3, #12]
  tmpreg = (uint32_t)huart->Init.WordLength | huart->Init.Parity | huart->Init.Mode;
 80012d6:	4302      	orrs	r2, r0
 80012d8:	6968      	ldr	r0, [r5, #20]
  MODIFY_REG(huart->Instance->CR1,
 80012da:	f421 51b0 	bic.w	r1, r1, #5632	; 0x1600
 80012de:	f021 010c 	bic.w	r1, r1, #12
  tmpreg = (uint32_t)huart->Init.WordLength | huart->Init.Parity | huart->Init.Mode;
 80012e2:	4302      	orrs	r2, r0
  MODIFY_REG(huart->Instance->CR1,
 80012e4:	430a      	orrs	r2, r1
 80012e6:	60da      	str	r2, [r3, #12]
             tmpreg);
#endif /* USART_CR1_OVER8 */

  /*-------------------------- USART CR3 Configuration -----------------------*/
  /* Configure the UART HFC: Set CTSE and RTSE bits according to huart->Init.HwFlowCtl value */
  MODIFY_REG(huart->Instance->CR3, (USART_CR3_RTSE | USART_CR3_CTSE), huart->Init.HwFlowCtl);
 80012e8:	695a      	ldr	r2, [r3, #20]
 80012ea:	69a9      	ldr	r1, [r5, #24]
 80012ec:	f422 7240 	bic.w	r2, r2, #768	; 0x300
 80012f0:	430a      	orrs	r2, r1
 80012f2:	615a      	str	r2, [r3, #20]
      huart->Instance->BRR = UART_BRR_SAMPLING16(pclk, huart->Init.BaudRate);
    }
  }
#else
  /*-------------------------- USART BRR Configuration ---------------------*/
  if(huart->Instance == USART1)
 80012f4:	4a0d      	ldr	r2, [pc, #52]	; (800132c <UART_SetConfig+0x70>)
 80012f6:	4293      	cmp	r3, r2
 80012f8:	d114      	bne.n	8001324 <UART_SetConfig+0x68>
  {
    pclk = HAL_RCC_GetPCLK2Freq();
 80012fa:	f7ff fe09 	bl	8000f10 <HAL_RCC_GetPCLK2Freq>
    huart->Instance->BRR = UART_BRR_SAMPLING16(pclk, huart->Init.BaudRate);
  }
  else
  {
    pclk = HAL_RCC_GetPCLK1Freq();
    huart->Instance->BRR = UART_BRR_SAMPLING16(pclk, huart->Init.BaudRate);
 80012fe:	4360      	muls	r0, r4
 8001300:	686c      	ldr	r4, [r5, #4]
 8001302:	2264      	movs	r2, #100	; 0x64
 8001304:	00a4      	lsls	r4, r4, #2
 8001306:	fbb0 f0f4 	udiv	r0, r0, r4
 800130a:	fbb0 f4f2 	udiv	r4, r0, r2
 800130e:	fb02 0314 	mls	r3, r2, r4, r0
 8001312:	011b      	lsls	r3, r3, #4
 8001314:	3332      	adds	r3, #50	; 0x32
 8001316:	fbb3 f3f2 	udiv	r3, r3, r2
 800131a:	6829      	ldr	r1, [r5, #0]
 800131c:	eb03 1304 	add.w	r3, r3, r4, lsl #4
 8001320:	608b      	str	r3, [r1, #8]
 8001322:	bd38      	pop	{r3, r4, r5, pc}
    pclk = HAL_RCC_GetPCLK1Freq();
 8001324:	f7ff fde4 	bl	8000ef0 <HAL_RCC_GetPCLK1Freq>
 8001328:	e7e9      	b.n	80012fe <UART_SetConfig+0x42>
 800132a:	bf00      	nop
 800132c:	40013800 	.word	0x40013800

08001330 <UART_WaitOnFlagUntilTimeout.constprop.3>:
static HAL_StatusTypeDef UART_WaitOnFlagUntilTimeout(UART_HandleTypeDef *huart, uint32_t Flag, FlagStatus Status, uint32_t Tickstart, uint32_t Timeout)
 8001330:	b5f8      	push	{r3, r4, r5, r6, r7, lr}
 8001332:	4604      	mov	r4, r0
 8001334:	460e      	mov	r6, r1
 8001336:	4617      	mov	r7, r2
 8001338:	461d      	mov	r5, r3
  while ((__HAL_UART_GET_FLAG(huart, Flag) ? SET : RESET) == Status)
 800133a:	6821      	ldr	r1, [r4, #0]
 800133c:	680b      	ldr	r3, [r1, #0]
 800133e:	ea36 0303 	bics.w	r3, r6, r3
 8001342:	d101      	bne.n	8001348 <UART_WaitOnFlagUntilTimeout.constprop.3+0x18>
  return HAL_OK;
 8001344:	2000      	movs	r0, #0
}
 8001346:	bdf8      	pop	{r3, r4, r5, r6, r7, pc}
    if (Timeout != HAL_MAX_DELAY)
 8001348:	1c6b      	adds	r3, r5, #1
 800134a:	d0f7      	beq.n	800133c <UART_WaitOnFlagUntilTimeout.constprop.3+0xc>
      if ((Timeout == 0U) || ((HAL_GetTick() - Tickstart) > Timeout))
 800134c:	b995      	cbnz	r5, 8001374 <UART_WaitOnFlagUntilTimeout.constprop.3+0x44>
        CLEAR_BIT(huart->Instance->CR1, (USART_CR1_RXNEIE | USART_CR1_PEIE | USART_CR1_TXEIE));
 800134e:	6823      	ldr	r3, [r4, #0]
        __HAL_UNLOCK(huart);
 8001350:	2003      	movs	r0, #3
        CLEAR_BIT(huart->Instance->CR1, (USART_CR1_RXNEIE | USART_CR1_PEIE | USART_CR1_TXEIE));
 8001352:	68da      	ldr	r2, [r3, #12]
 8001354:	f422 72d0 	bic.w	r2, r2, #416	; 0x1a0
 8001358:	60da      	str	r2, [r3, #12]
        CLEAR_BIT(huart->Instance->CR3, USART_CR3_EIE);
 800135a:	695a      	ldr	r2, [r3, #20]
 800135c:	f022 0201 	bic.w	r2, r2, #1
 8001360:	615a      	str	r2, [r3, #20]
        huart->gState  = HAL_UART_STATE_READY;
 8001362:	2320      	movs	r3, #32
 8001364:	f884 3039 	strb.w	r3, [r4, #57]	; 0x39
        huart->RxState = HAL_UART_STATE_READY;
 8001368:	f884 303a 	strb.w	r3, [r4, #58]	; 0x3a
        __HAL_UNLOCK(huart);
 800136c:	2300      	movs	r3, #0
 800136e:	f884 3038 	strb.w	r3, [r4, #56]	; 0x38
 8001372:	bdf8      	pop	{r3, r4, r5, r6, r7, pc}
      if ((Timeout == 0U) || ((HAL_GetTick() - Tickstart) > Timeout))
 8001374:	f7fe ff2c 	bl	80001d0 <HAL_GetTick>
 8001378:	1bc0      	subs	r0, r0, r7
 800137a:	4285      	cmp	r5, r0
 800137c:	d2dd      	bcs.n	800133a <UART_WaitOnFlagUntilTimeout.constprop.3+0xa>
 800137e:	e7e6      	b.n	800134e <UART_WaitOnFlagUntilTimeout.constprop.3+0x1e>

08001380 <HAL_UART_Init>:
{
 8001380:	b510      	push	{r4, lr}
  if (huart == NULL)
 8001382:	4604      	mov	r4, r0
 8001384:	b340      	cbz	r0, 80013d8 <HAL_UART_Init+0x58>
  if (huart->gState == HAL_UART_STATE_RESET)
 8001386:	f890 3039 	ldrb.w	r3, [r0, #57]	; 0x39
 800138a:	f003 02ff 	and.w	r2, r3, #255	; 0xff
 800138e:	b91b      	cbnz	r3, 8001398 <HAL_UART_Init+0x18>
    huart->Lock = HAL_UNLOCKED;
 8001390:	f880 2038 	strb.w	r2, [r0, #56]	; 0x38
    HAL_UART_MspInit(huart);
 8001394:	f000 fd2c 	bl	8001df0 <HAL_UART_MspInit>
  huart->gState = HAL_UART_STATE_BUSY;
 8001398:	2324      	movs	r3, #36	; 0x24
  __HAL_UART_DISABLE(huart);
 800139a:	6822      	ldr	r2, [r4, #0]
  huart->gState = HAL_UART_STATE_BUSY;
 800139c:	f884 3039 	strb.w	r3, [r4, #57]	; 0x39
  __HAL_UART_DISABLE(huart);
 80013a0:	68d3      	ldr	r3, [r2, #12]
  UART_SetConfig(huart);
 80013a2:	4620      	mov	r0, r4
  __HAL_UART_DISABLE(huart);
 80013a4:	f423 5300 	bic.w	r3, r3, #8192	; 0x2000
 80013a8:	60d3      	str	r3, [r2, #12]
  UART_SetConfig(huart);
 80013aa:	f7ff ff87 	bl	80012bc <UART_SetConfig>
  CLEAR_BIT(huart->Instance->CR2, (USART_CR2_LINEN | USART_CR2_CLKEN));
 80013ae:	6823      	ldr	r3, [r4, #0]
  huart->ErrorCode = HAL_UART_ERROR_NONE;
 80013b0:	2000      	movs	r0, #0
  CLEAR_BIT(huart->Instance->CR2, (USART_CR2_LINEN | USART_CR2_CLKEN));
 80013b2:	691a      	ldr	r2, [r3, #16]
 80013b4:	f422 4290 	bic.w	r2, r2, #18432	; 0x4800
 80013b8:	611a      	str	r2, [r3, #16]
  CLEAR_BIT(huart->Instance->CR3, (USART_CR3_SCEN | USART_CR3_HDSEL | USART_CR3_IREN));
 80013ba:	695a      	ldr	r2, [r3, #20]
 80013bc:	f022 022a 	bic.w	r2, r2, #42	; 0x2a
 80013c0:	615a      	str	r2, [r3, #20]
  __HAL_UART_ENABLE(huart);
 80013c2:	68da      	ldr	r2, [r3, #12]
 80013c4:	f442 5200 	orr.w	r2, r2, #8192	; 0x2000
 80013c8:	60da      	str	r2, [r3, #12]
  huart->gState = HAL_UART_STATE_READY;
 80013ca:	2320      	movs	r3, #32
  huart->ErrorCode = HAL_UART_ERROR_NONE;
 80013cc:	63e0      	str	r0, [r4, #60]	; 0x3c
  huart->gState = HAL_UART_STATE_READY;
 80013ce:	f884 3039 	strb.w	r3, [r4, #57]	; 0x39
  huart->RxState = HAL_UART_STATE_READY;
 80013d2:	f884 303a 	strb.w	r3, [r4, #58]	; 0x3a
  return HAL_OK;
 80013d6:	bd10      	pop	{r4, pc}
    return HAL_ERROR;
 80013d8:	2001      	movs	r0, #1
}
 80013da:	bd10      	pop	{r4, pc}

080013dc <HAL_UART_Transmit>:
{
 80013dc:	e92d 41f0 	stmdb	sp!, {r4, r5, r6, r7, r8, lr}
 80013e0:	461f      	mov	r7, r3
  if (huart->gState == HAL_UART_STATE_READY)
 80013e2:	f890 3039 	ldrb.w	r3, [r0, #57]	; 0x39
{
 80013e6:	4604      	mov	r4, r0
  if (huart->gState == HAL_UART_STATE_READY)
 80013e8:	2b20      	cmp	r3, #32
{
 80013ea:	460d      	mov	r5, r1
 80013ec:	4690      	mov	r8, r2
  if (huart->gState == HAL_UART_STATE_READY)
 80013ee:	d14e      	bne.n	800148e <HAL_UART_Transmit+0xb2>
    if ((pData == NULL) || (Size == 0U))
 80013f0:	2900      	cmp	r1, #0
 80013f2:	d049      	beq.n	8001488 <HAL_UART_Transmit+0xac>
 80013f4:	2a00      	cmp	r2, #0
 80013f6:	d047      	beq.n	8001488 <HAL_UART_Transmit+0xac>
    __HAL_LOCK(huart);
 80013f8:	f890 3038 	ldrb.w	r3, [r0, #56]	; 0x38
 80013fc:	2b01      	cmp	r3, #1
 80013fe:	d046      	beq.n	800148e <HAL_UART_Transmit+0xb2>
 8001400:	2301      	movs	r3, #1
 8001402:	f880 3038 	strb.w	r3, [r0, #56]	; 0x38
    huart->ErrorCode = HAL_UART_ERROR_NONE;
 8001406:	2300      	movs	r3, #0
 8001408:	63c3      	str	r3, [r0, #60]	; 0x3c
    huart->gState = HAL_UART_STATE_BUSY_TX;
 800140a:	2321      	movs	r3, #33	; 0x21
 800140c:	f880 3039 	strb.w	r3, [r0, #57]	; 0x39
    tickstart = HAL_GetTick();
 8001410:	f7fe fede 	bl	80001d0 <HAL_GetTick>
 8001414:	4606      	mov	r6, r0
    huart->TxXferSize = Size;
 8001416:	f8a4 8024 	strh.w	r8, [r4, #36]	; 0x24
    huart->TxXferCount = Size;
 800141a:	f8a4 8026 	strh.w	r8, [r4, #38]	; 0x26
    while (huart->TxXferCount > 0U)
 800141e:	8ce3      	ldrh	r3, [r4, #38]	; 0x26
 8001420:	b29b      	uxth	r3, r3
 8001422:	b96b      	cbnz	r3, 8001440 <HAL_UART_Transmit+0x64>
    if (UART_WaitOnFlagUntilTimeout(huart, UART_FLAG_TC, RESET, tickstart, Timeout) != HAL_OK)
 8001424:	463b      	mov	r3, r7
 8001426:	4632      	mov	r2, r6
 8001428:	2140      	movs	r1, #64	; 0x40
 800142a:	4620      	mov	r0, r4
 800142c:	f7ff ff80 	bl	8001330 <UART_WaitOnFlagUntilTimeout.constprop.3>
 8001430:	b9a8      	cbnz	r0, 800145e <HAL_UART_Transmit+0x82>
    huart->gState = HAL_UART_STATE_READY;
 8001432:	2320      	movs	r3, #32
    __HAL_UNLOCK(huart);
 8001434:	f884 0038 	strb.w	r0, [r4, #56]	; 0x38
    huart->gState = HAL_UART_STATE_READY;
 8001438:	f884 3039 	strb.w	r3, [r4, #57]	; 0x39
    return HAL_OK;
 800143c:	e8bd 81f0 	ldmia.w	sp!, {r4, r5, r6, r7, r8, pc}
      huart->TxXferCount--;
 8001440:	8ce3      	ldrh	r3, [r4, #38]	; 0x26
        if (UART_WaitOnFlagUntilTimeout(huart, UART_FLAG_TXE, RESET, tickstart, Timeout) != HAL_OK)
 8001442:	4632      	mov	r2, r6
      huart->TxXferCount--;
 8001444:	3b01      	subs	r3, #1
 8001446:	b29b      	uxth	r3, r3
 8001448:	84e3      	strh	r3, [r4, #38]	; 0x26
      if (huart->Init.WordLength == UART_WORDLENGTH_9B)
 800144a:	68a3      	ldr	r3, [r4, #8]
        if (UART_WaitOnFlagUntilTimeout(huart, UART_FLAG_TXE, RESET, tickstart, Timeout) != HAL_OK)
 800144c:	2180      	movs	r1, #128	; 0x80
      if (huart->Init.WordLength == UART_WORDLENGTH_9B)
 800144e:	f5b3 5f80 	cmp.w	r3, #4096	; 0x1000
        if (UART_WaitOnFlagUntilTimeout(huart, UART_FLAG_TXE, RESET, tickstart, Timeout) != HAL_OK)
 8001452:	4620      	mov	r0, r4
 8001454:	463b      	mov	r3, r7
      if (huart->Init.WordLength == UART_WORDLENGTH_9B)
 8001456:	d10e      	bne.n	8001476 <HAL_UART_Transmit+0x9a>
        if (UART_WaitOnFlagUntilTimeout(huart, UART_FLAG_TXE, RESET, tickstart, Timeout) != HAL_OK)
 8001458:	f7ff ff6a 	bl	8001330 <UART_WaitOnFlagUntilTimeout.constprop.3>
 800145c:	b110      	cbz	r0, 8001464 <HAL_UART_Transmit+0x88>
          return HAL_TIMEOUT;
 800145e:	2003      	movs	r0, #3
 8001460:	e8bd 81f0 	ldmia.w	sp!, {r4, r5, r6, r7, r8, pc}
        huart->Instance->DR = (*tmp & (uint16_t)0x01FF);
 8001464:	882b      	ldrh	r3, [r5, #0]
 8001466:	6822      	ldr	r2, [r4, #0]
 8001468:	f3c3 0308 	ubfx	r3, r3, #0, #9
 800146c:	6053      	str	r3, [r2, #4]
        if (huart->Init.Parity == UART_PARITY_NONE)
 800146e:	6923      	ldr	r3, [r4, #16]
 8001470:	b943      	cbnz	r3, 8001484 <HAL_UART_Transmit+0xa8>
          pData += 2U;
 8001472:	3502      	adds	r5, #2
 8001474:	e7d3      	b.n	800141e <HAL_UART_Transmit+0x42>
        if (UART_WaitOnFlagUntilTimeout(huart, UART_FLAG_TXE, RESET, tickstart, Timeout) != HAL_OK)
 8001476:	f7ff ff5b 	bl	8001330 <UART_WaitOnFlagUntilTimeout.constprop.3>
 800147a:	2800      	cmp	r0, #0
 800147c:	d1ef      	bne.n	800145e <HAL_UART_Transmit+0x82>
        huart->Instance->DR = (*pData++ & (uint8_t)0xFF);
 800147e:	6823      	ldr	r3, [r4, #0]
 8001480:	782a      	ldrb	r2, [r5, #0]
 8001482:	605a      	str	r2, [r3, #4]
 8001484:	3501      	adds	r5, #1
 8001486:	e7ca      	b.n	800141e <HAL_UART_Transmit+0x42>
      return  HAL_ERROR;
 8001488:	2001      	movs	r0, #1
 800148a:	e8bd 81f0 	ldmia.w	sp!, {r4, r5, r6, r7, r8, pc}
    return HAL_BUSY;
 800148e:	2002      	movs	r0, #2
}
 8001490:	e8bd 81f0 	ldmia.w	sp!, {r4, r5, r6, r7, r8, pc}

08001494 <display_update2>:
#include "display_prints.h"
#include <stdio.h>


void display_update2(u8g2_t *p_u8g2, struct display_screen1_data *screen_data, struct display_screen1_error_message *screen_error) {
 8001494:	e92d 47f0 	stmdb	sp!, {r4, r5, r6, r7, r8, r9, sl, lr}
 8001498:	b086      	sub	sp, #24
 800149a:	4604      	mov	r4, r0
 800149c:	460d      	mov	r5, r1
 800149e:	4690      	mov	r8, r2
	char tmp_string[24];
	u8g2_FirstPage(p_u8g2);
 80014a0:	f000 fd98 	bl	8001fd4 <u8g2_FirstPage>

	do {
		/* boiler temperature */
		u8g2_SetFont(p_u8g2, u8g2_font_courB10_tf);
		sprintf(tmp_string, "Boiler:%s%sC", screen_data->str_boiler_value, "\xb0");
 80014a4:	4f3b      	ldr	r7, [pc, #236]	; (8001594 <display_update2+0x100>)
		u8g2_DrawStr(p_u8g2, 0, 10, tmp_string);

		u8g2_SetFont(p_u8g2, u8g2_font_courR08_tf);
		/* house 1 temperature */
		sprintf(tmp_string, "t:%s %sC", screen_data->str_tempreture_value_1, "\xb0");
 80014a6:	f8df 910c 	ldr.w	r9, [pc, #268]	; 80015b4 <display_update2+0x120>
		u8g2_SetFont(p_u8g2, u8g2_font_courB10_tf);
 80014aa:	493b      	ldr	r1, [pc, #236]	; (8001598 <display_update2+0x104>)
 80014ac:	4620      	mov	r0, r4
 80014ae:	f001 f847 	bl	8002540 <u8g2_SetFont>
		sprintf(tmp_string, "Boiler:%s%sC", screen_data->str_boiler_value, "\xb0");
 80014b2:	463b      	mov	r3, r7
 80014b4:	462a      	mov	r2, r5
 80014b6:	4939      	ldr	r1, [pc, #228]	; (800159c <display_update2+0x108>)
 80014b8:	4668      	mov	r0, sp
 80014ba:	f001 fc85 	bl	8002dc8 <siprintf>
		u8g2_DrawStr(p_u8g2, 0, 10, tmp_string);
 80014be:	466b      	mov	r3, sp
 80014c0:	220a      	movs	r2, #10
 80014c2:	2100      	movs	r1, #0
 80014c4:	4620      	mov	r0, r4
 80014c6:	f001 f801 	bl	80024cc <u8g2_DrawStr>
		sprintf(tmp_string, "t:%s %sC", screen_data->str_tempreture_value_1, "\xb0");
 80014ca:	f105 060a 	add.w	r6, r5, #10
		u8g2_SetFont(p_u8g2, u8g2_font_courR08_tf);
 80014ce:	4934      	ldr	r1, [pc, #208]	; (80015a0 <display_update2+0x10c>)
 80014d0:	4620      	mov	r0, r4
 80014d2:	f001 f835 	bl	8002540 <u8g2_SetFont>
		sprintf(tmp_string, "t:%s %sC", screen_data->str_tempreture_value_1, "\xb0");
 80014d6:	463b      	mov	r3, r7
 80014d8:	4632      	mov	r2, r6
 80014da:	4649      	mov	r1, r9
 80014dc:	4668      	mov	r0, sp
 80014de:	f001 fc73 	bl	8002dc8 <siprintf>
		u8g2_DrawStr(p_u8g2, 0, 25, tmp_string);

		/* house 1 humidity */
		sprintf(tmp_string, "h:%s %%", screen_data->str_humidity_value_2);
 80014e2:	f105 0a28 	add.w	sl, r5, #40	; 0x28
		u8g2_DrawStr(p_u8g2, 0, 25, tmp_string);
 80014e6:	466b      	mov	r3, sp
 80014e8:	2219      	movs	r2, #25
 80014ea:	2100      	movs	r1, #0
 80014ec:	4620      	mov	r0, r4
 80014ee:	f000 ffed 	bl	80024cc <u8g2_DrawStr>
		sprintf(tmp_string, "h:%s %%", screen_data->str_humidity_value_2);
 80014f2:	4652      	mov	r2, sl
 80014f4:	492b      	ldr	r1, [pc, #172]	; (80015a4 <display_update2+0x110>)
 80014f6:	4668      	mov	r0, sp
 80014f8:	f001 fc66 	bl	8002dc8 <siprintf>
		u8g2_DrawStr(p_u8g2, 0, 35, tmp_string);
 80014fc:	466b      	mov	r3, sp
 80014fe:	2223      	movs	r2, #35	; 0x23
 8001500:	2100      	movs	r1, #0
 8001502:	4620      	mov	r0, r4
 8001504:	f000 ffe2 	bl	80024cc <u8g2_DrawStr>


		/* house 2 temperature */
		sprintf(tmp_string, "t:%s %sC", screen_data->str_tempreture_value_1, "\xb0");
 8001508:	463b      	mov	r3, r7
 800150a:	4632      	mov	r2, r6
 800150c:	4649      	mov	r1, r9
 800150e:	4668      	mov	r0, sp
 8001510:	f001 fc5a 	bl	8002dc8 <siprintf>
		u8g2_DrawStr(p_u8g2, 64, 25, tmp_string);
 8001514:	466b      	mov	r3, sp
 8001516:	2219      	movs	r2, #25
 8001518:	2140      	movs	r1, #64	; 0x40
 800151a:	4620      	mov	r0, r4
 800151c:	f000 ffd6 	bl	80024cc <u8g2_DrawStr>

		/* house 2 humidity */
		sprintf(tmp_string, "h:%s %%", screen_data->str_humidity_value_2);
 8001520:	4652      	mov	r2, sl
 8001522:	4920      	ldr	r1, [pc, #128]	; (80015a4 <display_update2+0x110>)
 8001524:	4668      	mov	r0, sp
 8001526:	f001 fc4f 	bl	8002dc8 <siprintf>
		u8g2_DrawStr(p_u8g2, 64, 35, tmp_string);
 800152a:	466b      	mov	r3, sp
 800152c:	2223      	movs	r2, #35	; 0x23
 800152e:	2140      	movs	r1, #64	; 0x40
 8001530:	4620      	mov	r0, r4
 8001532:	f000 ffcb 	bl	80024cc <u8g2_DrawStr>

		/* pump status 1 */
		sprintf(tmp_string, "pump1:%s", screen_data->str_pump_status_1);
 8001536:	f105 0232 	add.w	r2, r5, #50	; 0x32
 800153a:	491b      	ldr	r1, [pc, #108]	; (80015a8 <display_update2+0x114>)
 800153c:	4668      	mov	r0, sp
 800153e:	f001 fc43 	bl	8002dc8 <siprintf>
		u8g2_DrawStr(p_u8g2, 0, 45, tmp_string);
 8001542:	466b      	mov	r3, sp
 8001544:	222d      	movs	r2, #45	; 0x2d
 8001546:	2100      	movs	r1, #0
 8001548:	4620      	mov	r0, r4
 800154a:	f000 ffbf 	bl	80024cc <u8g2_DrawStr>

		/* pump status 1 */
		sprintf(tmp_string, "pump2:%s", screen_data->str_pump_status_2);
 800154e:	f105 023c 	add.w	r2, r5, #60	; 0x3c
 8001552:	4916      	ldr	r1, [pc, #88]	; (80015ac <display_update2+0x118>)
 8001554:	4668      	mov	r0, sp
 8001556:	f001 fc37 	bl	8002dc8 <siprintf>
		u8g2_DrawStr(p_u8g2, 64, 45, tmp_string);
 800155a:	466b      	mov	r3, sp
 800155c:	222d      	movs	r2, #45	; 0x2d
 800155e:	2140      	movs	r1, #64	; 0x40
 8001560:	4620      	mov	r0, r4
 8001562:	f000 ffb3 	bl	80024cc <u8g2_DrawStr>

		if (screen_error->error_flag != ERROR_FLAG_OFF) {
 8001566:	f898 3018 	ldrb.w	r3, [r8, #24]
 800156a:	b153      	cbz	r3, 8001582 <display_update2+0xee>
			/* pump status 1 */
			sprintf(tmp_string, "Error:%s", screen_error->str_error);
 800156c:	4642      	mov	r2, r8
 800156e:	4910      	ldr	r1, [pc, #64]	; (80015b0 <display_update2+0x11c>)
 8001570:	4668      	mov	r0, sp
 8001572:	f001 fc29 	bl	8002dc8 <siprintf>
			u8g2_DrawStr(p_u8g2, 0, 64, tmp_string);
 8001576:	466b      	mov	r3, sp
 8001578:	2240      	movs	r2, #64	; 0x40
 800157a:	2100      	movs	r1, #0
 800157c:	4620      	mov	r0, r4
 800157e:	f000 ffa5 	bl	80024cc <u8g2_DrawStr>
		}

	 } while (u8g2_NextPage(p_u8g2));
 8001582:	4620      	mov	r0, r4
 8001584:	f000 fd33 	bl	8001fee <u8g2_NextPage>
 8001588:	2800      	cmp	r0, #0
 800158a:	d18e      	bne.n	80014aa <display_update2+0x16>
}
 800158c:	b006      	add	sp, #24
 800158e:	e8bd 87f0 	ldmia.w	sp!, {r4, r5, r6, r7, r8, r9, sl, pc}
 8001592:	bf00      	nop
 8001594:	08003cf0 	.word	0x08003cf0
 8001598:	08003d79 	.word	0x08003d79
 800159c:	08003cf2 	.word	0x08003cf2
 80015a0:	0800490b 	.word	0x0800490b
 80015a4:	08003d08 	.word	0x08003d08
 80015a8:	08003d10 	.word	0x08003d10
 80015ac:	08003d19 	.word	0x08003d19
 80015b0:	08003d22 	.word	0x08003d22
 80015b4:	08003cff 	.word	0x08003cff

080015b8 <u8x8_gpio_and_delay_8080>:
  return 1;
}

uint8_t u8x8_gpio_and_delay_8080(u8x8_t *u8x8, uint8_t msg, uint8_t arg_int, void *arg_ptr)
{
  switch(msg)
 80015b8:	3928      	subs	r1, #40	; 0x28
{
 80015ba:	b508      	push	{r3, lr}
  switch(msg)
 80015bc:	2923      	cmp	r1, #35	; 0x23
 80015be:	d822      	bhi.n	8001606 <u8x8_gpio_and_delay_8080+0x4e>
 80015c0:	e8df f001 	tbb	[pc, r1]
 80015c4:	21212312 	.word	0x21212312
 80015c8:	21212121 	.word	0x21212121
 80015cc:	21212121 	.word	0x21212121
 80015d0:	21212121 	.word	0x21212121
 80015d4:	21212121 	.word	0x21212121
 80015d8:	21212121 	.word	0x21212121
 80015dc:	2e2c2a25 	.word	0x2e2c2a25
 80015e0:	36343230 	.word	0x36343230
 80015e4:	413e3b38 	.word	0x413e3b38
  {
    case U8X8_MSG_GPIO_AND_DELAY_INIT:	// called once during init phase of u8g2/u8x8
    	  HAL_GPIO_WritePin(DISPLAY_RD_GPIO_Port, DISPLAY_RD_Pin, GPIO_PIN_SET);
 80015e8:	2201      	movs	r2, #1
 80015ea:	f44f 7180 	mov.w	r1, #256	; 0x100
 80015ee:	4817      	ldr	r0, [pc, #92]	; (800164c <u8x8_gpio_and_delay_8080+0x94>)
 80015f0:	f7ff f9fa 	bl	80009e8 <HAL_GPIO_WritePin>
    	  HAL_GPIO_WritePin(DISPLAY_CS_GPIO_Port, DISPLAY_CS_Pin, GPIO_PIN_SET);
 80015f4:	4815      	ldr	r0, [pc, #84]	; (800164c <u8x8_gpio_and_delay_8080+0x94>)
 80015f6:	2201      	movs	r2, #1
 80015f8:	f44f 4100 	mov.w	r1, #32768	; 0x8000
 80015fc:	f7ff f9f4 	bl	80009e8 <HAL_GPIO_WritePin>
    	  HAL_Delay(1);
 8001600:	2001      	movs	r0, #1
    case U8X8_MSG_DELAY_100NANO:		// delay arg_int * 100 nano seconds
      break;
    case U8X8_MSG_DELAY_10MICRO:		// delay arg_int * 10 micro seconds
      break;
    case U8X8_MSG_DELAY_MILLI:			// delay arg_int * 1 milli second
    	HAL_Delay(arg_int);
 8001602:	f7fe fdeb 	bl	80001dc <HAL_Delay>
    default:
//      u8x8_SetGPIOResult(u8x8, 1);			// default return value
      break;
  }
  return 1;
}
 8001606:	2001      	movs	r0, #1
 8001608:	bd08      	pop	{r3, pc}
    	HAL_Delay(arg_int);
 800160a:	4610      	mov	r0, r2
 800160c:	e7f9      	b.n	8001602 <u8x8_gpio_and_delay_8080+0x4a>
    	HAL_GPIO_WritePin(DISPLAY_D0_GPIO_Port, DISPLAY_D0_Pin, arg_int);
 800160e:	2101      	movs	r1, #1
    	HAL_GPIO_WritePin(DISPLAY_RESET_GPIO_Port, DISPLAY_RESET_Pin, arg_int);
 8001610:	480e      	ldr	r0, [pc, #56]	; (800164c <u8x8_gpio_and_delay_8080+0x94>)
 8001612:	f7ff f9e9 	bl	80009e8 <HAL_GPIO_WritePin>
    	break;
 8001616:	e7f6      	b.n	8001606 <u8x8_gpio_and_delay_8080+0x4e>
    	HAL_GPIO_WritePin(DISPLAY_D1_GPIO_Port, DISPLAY_D1_Pin, arg_int);
 8001618:	2102      	movs	r1, #2
 800161a:	e7f9      	b.n	8001610 <u8x8_gpio_and_delay_8080+0x58>
    	HAL_GPIO_WritePin(DISPLAY_D2_GPIO_Port, DISPLAY_D2_Pin, arg_int);
 800161c:	2104      	movs	r1, #4
 800161e:	e7f7      	b.n	8001610 <u8x8_gpio_and_delay_8080+0x58>
    	HAL_GPIO_WritePin(DISPLAY_D3_GPIO_Port, DISPLAY_D3_Pin, arg_int);
 8001620:	2108      	movs	r1, #8
 8001622:	e7f5      	b.n	8001610 <u8x8_gpio_and_delay_8080+0x58>
    	HAL_GPIO_WritePin(DISPLAY_D4_GPIO_Port, DISPLAY_D4_Pin, arg_int);
 8001624:	2110      	movs	r1, #16
 8001626:	e7f3      	b.n	8001610 <u8x8_gpio_and_delay_8080+0x58>
    	HAL_GPIO_WritePin(DISPLAY_D5_GPIO_Port, DISPLAY_D5_Pin, arg_int);
 8001628:	2120      	movs	r1, #32
 800162a:	e7f1      	b.n	8001610 <u8x8_gpio_and_delay_8080+0x58>
    	HAL_GPIO_WritePin(DISPLAY_D6_GPIO_Port, DISPLAY_D6_Pin, arg_int);
 800162c:	2140      	movs	r1, #64	; 0x40
 800162e:	e7ef      	b.n	8001610 <u8x8_gpio_and_delay_8080+0x58>
    	HAL_GPIO_WritePin(DISPLAY_D7_GPIO_Port, DISPLAY_D7_Pin, arg_int);
 8001630:	2180      	movs	r1, #128	; 0x80
 8001632:	e7ed      	b.n	8001610 <u8x8_gpio_and_delay_8080+0x58>
    	HAL_GPIO_WritePin(DISPLAY_WR_GPIO_Port, DISPLAY_WR_Pin, arg_int);
 8001634:	f44f 7100 	mov.w	r1, #512	; 0x200
 8001638:	e7ea      	b.n	8001610 <u8x8_gpio_and_delay_8080+0x58>
    	HAL_GPIO_WritePin(DISPLAY_CS_GPIO_Port, DISPLAY_CS_Pin, arg_int);
 800163a:	f44f 4100 	mov.w	r1, #32768	; 0x8000
 800163e:	e7e7      	b.n	8001610 <u8x8_gpio_and_delay_8080+0x58>
    	HAL_GPIO_WritePin(DISPLAY_A0_GPIO_Port, DISPLAY_A0_Pin, arg_int);
 8001640:	f44f 5100 	mov.w	r1, #8192	; 0x2000
 8001644:	e7e4      	b.n	8001610 <u8x8_gpio_and_delay_8080+0x58>
    	HAL_GPIO_WritePin(DISPLAY_RESET_GPIO_Port, DISPLAY_RESET_Pin, arg_int);
 8001646:	f44f 4180 	mov.w	r1, #16384	; 0x4000
 800164a:	e7e1      	b.n	8001610 <u8x8_gpio_and_delay_8080+0x58>
 800164c:	40010c00 	.word	0x40010c00

08001650 <button_debounce>:
void button_debounce() {
 8001650:	b508      	push	{r3, lr}
	uint8_t button_state = HAL_GPIO_ReadPin(BUTTON_0_GPIO_Port, BUTTON_0_Pin);
 8001652:	2101      	movs	r1, #1
 8001654:	4815      	ldr	r0, [pc, #84]	; (80016ac <button_debounce+0x5c>)
 8001656:	f7ff f9c1 	bl	80009dc <HAL_GPIO_ReadPin>
	if (button_status == 0) {
 800165a:	4b15      	ldr	r3, [pc, #84]	; (80016b0 <button_debounce+0x60>)
 800165c:	781a      	ldrb	r2, [r3, #0]
 800165e:	f002 01ff 	and.w	r1, r2, #255	; 0xff
 8001662:	b972      	cbnz	r2, 8001682 <button_debounce+0x32>
 8001664:	4a13      	ldr	r2, [pc, #76]	; (80016b4 <button_debounce+0x64>)
		if (button_state == RESET) {
 8001666:	b9e0      	cbnz	r0, 80016a2 <button_debounce+0x52>
			button_counter++;
 8001668:	8811      	ldrh	r1, [r2, #0]
 800166a:	3101      	adds	r1, #1
 800166c:	b289      	uxth	r1, r1
 800166e:	8011      	strh	r1, [r2, #0]
			if (button_counter >= BUTTON_DEBOUNCE_TIME) {
 8001670:	8811      	ldrh	r1, [r2, #0]
 8001672:	b289      	uxth	r1, r1
 8001674:	2931      	cmp	r1, #49	; 0x31
 8001676:	d904      	bls.n	8001682 <button_debounce+0x32>
				button_counter = 0;
 8001678:	8010      	strh	r0, [r2, #0]
				button_status = 1;
 800167a:	2201      	movs	r2, #1
				global_button_status = 1;
 800167c:	490e      	ldr	r1, [pc, #56]	; (80016b8 <button_debounce+0x68>)
				button_status = 1;
 800167e:	701a      	strb	r2, [r3, #0]
				global_button_status = 1;
 8001680:	700a      	strb	r2, [r1, #0]
	if (button_status != 0) {
 8001682:	781a      	ldrb	r2, [r3, #0]
 8001684:	b182      	cbz	r2, 80016a8 <button_debounce+0x58>
 8001686:	4a0b      	ldr	r2, [pc, #44]	; (80016b4 <button_debounce+0x64>)
		if (button_state != RESET) {
 8001688:	b168      	cbz	r0, 80016a6 <button_debounce+0x56>
			button_counter++;
 800168a:	8811      	ldrh	r1, [r2, #0]
 800168c:	3101      	adds	r1, #1
 800168e:	b289      	uxth	r1, r1
 8001690:	8011      	strh	r1, [r2, #0]
			if (button_counter >= BUTTON_DEBOUNCE_TIME) {
 8001692:	8811      	ldrh	r1, [r2, #0]
 8001694:	b289      	uxth	r1, r1
 8001696:	2931      	cmp	r1, #49	; 0x31
 8001698:	d906      	bls.n	80016a8 <button_debounce+0x58>
				button_counter = 0;
 800169a:	2100      	movs	r1, #0
 800169c:	8011      	strh	r1, [r2, #0]
				button_status = 0;
 800169e:	7019      	strb	r1, [r3, #0]
 80016a0:	bd08      	pop	{r3, pc}
			button_counter = 0;
 80016a2:	8011      	strh	r1, [r2, #0]
 80016a4:	e7ed      	b.n	8001682 <button_debounce+0x32>
			button_counter = 0;
 80016a6:	8010      	strh	r0, [r2, #0]
 80016a8:	bd08      	pop	{r3, pc}
 80016aa:	bf00      	nop
 80016ac:	40010800 	.word	0x40010800
 80016b0:	2000008e 	.word	0x2000008e
 80016b4:	2000008c 	.word	0x2000008c
 80016b8:	2000008f 	.word	0x2000008f

080016bc <_write>:
{
 80016bc:	b510      	push	{r4, lr}
 80016be:	4614      	mov	r4, r2
 HAL_UART_Transmit(&huart3, (uint8_t *) ptr, len, HAL_MAX_DELAY);
 80016c0:	f04f 33ff 	mov.w	r3, #4294967295	; 0xffffffff
 80016c4:	b292      	uxth	r2, r2
 80016c6:	4802      	ldr	r0, [pc, #8]	; (80016d0 <_write+0x14>)
 80016c8:	f7ff fe88 	bl	80013dc <HAL_UART_Transmit>
}
 80016cc:	4620      	mov	r0, r4
 80016ce:	bd10      	pop	{r4, pc}
 80016d0:	20000228 	.word	0x20000228

080016d4 <send_8080_data_delay_100u>:
	micro_delay_counter = delay+1;
 80016d4:	3001      	adds	r0, #1
 80016d6:	4b04      	ldr	r3, [pc, #16]	; (80016e8 <send_8080_data_delay_100u+0x14>)
 80016d8:	b280      	uxth	r0, r0
 80016da:	8018      	strh	r0, [r3, #0]
	while(micro_delay_counter > 0) {
 80016dc:	881a      	ldrh	r2, [r3, #0]
 80016de:	b292      	uxth	r2, r2
 80016e0:	2a00      	cmp	r2, #0
 80016e2:	d1fb      	bne.n	80016dc <send_8080_data_delay_100u+0x8>
}
 80016e4:	4770      	bx	lr
 80016e6:	bf00      	nop
 80016e8:	20000094 	.word	0x20000094

080016ec <send_8080_data>:
void send_8080_data(uint8_t arg_int, void *arg_ptr) {
 80016ec:	b5f8      	push	{r3, r4, r5, r6, r7, lr}
 80016ee:	3801      	subs	r0, #1
		HAL_GPIO_WritePin(DISPLAY_D0_GPIO_Port, DISPLAY_D0_Pin, byte & 0x01);
 80016f0:	4c25      	ldr	r4, [pc, #148]	; (8001788 <send_8080_data+0x9c>)
 80016f2:	1e4f      	subs	r7, r1, #1
 80016f4:	180e      	adds	r6, r1, r0
	for (uint8_t i = 0; i < quantity; i++) {
 80016f6:	42b7      	cmp	r7, r6
 80016f8:	d100      	bne.n	80016fc <send_8080_data+0x10>
}
 80016fa:	bdf8      	pop	{r3, r4, r5, r6, r7, pc}
		uint8_t byte = data_buffer[i];
 80016fc:	f817 5f01 	ldrb.w	r5, [r7, #1]!
		HAL_GPIO_WritePin(DISPLAY_D0_GPIO_Port, DISPLAY_D0_Pin, byte & 0x01);
 8001700:	4620      	mov	r0, r4
 8001702:	f005 0201 	and.w	r2, r5, #1
 8001706:	2101      	movs	r1, #1
 8001708:	f7ff f96e 	bl	80009e8 <HAL_GPIO_WritePin>
		HAL_GPIO_WritePin(DISPLAY_D1_GPIO_Port, DISPLAY_D1_Pin, byte & 0x02);
 800170c:	f005 0202 	and.w	r2, r5, #2
 8001710:	4620      	mov	r0, r4
 8001712:	2102      	movs	r1, #2
 8001714:	f7ff f968 	bl	80009e8 <HAL_GPIO_WritePin>
		HAL_GPIO_WritePin(DISPLAY_D2_GPIO_Port, DISPLAY_D2_Pin, byte & 0x04);
 8001718:	f005 0204 	and.w	r2, r5, #4
 800171c:	4620      	mov	r0, r4
 800171e:	2104      	movs	r1, #4
 8001720:	f7ff f962 	bl	80009e8 <HAL_GPIO_WritePin>
		HAL_GPIO_WritePin(DISPLAY_D3_GPIO_Port, DISPLAY_D3_Pin, byte & 0x08);
 8001724:	f005 0208 	and.w	r2, r5, #8
 8001728:	4620      	mov	r0, r4
 800172a:	2108      	movs	r1, #8
 800172c:	f7ff f95c 	bl	80009e8 <HAL_GPIO_WritePin>
		HAL_GPIO_WritePin(DISPLAY_D4_GPIO_Port, DISPLAY_D4_Pin, byte & 0x10);
 8001730:	f005 0210 	and.w	r2, r5, #16
 8001734:	4620      	mov	r0, r4
 8001736:	2110      	movs	r1, #16
 8001738:	f7ff f956 	bl	80009e8 <HAL_GPIO_WritePin>
		HAL_GPIO_WritePin(DISPLAY_D5_GPIO_Port, DISPLAY_D5_Pin, byte & 0x20);
 800173c:	f005 0220 	and.w	r2, r5, #32
 8001740:	4620      	mov	r0, r4
 8001742:	2120      	movs	r1, #32
 8001744:	f7ff f950 	bl	80009e8 <HAL_GPIO_WritePin>
		HAL_GPIO_WritePin(DISPLAY_D6_GPIO_Port, DISPLAY_D6_Pin, byte & 0x40);
 8001748:	f005 0240 	and.w	r2, r5, #64	; 0x40
 800174c:	4620      	mov	r0, r4
 800174e:	2140      	movs	r1, #64	; 0x40
 8001750:	f7ff f94a 	bl	80009e8 <HAL_GPIO_WritePin>
		HAL_GPIO_WritePin(DISPLAY_D7_GPIO_Port, DISPLAY_D7_Pin, byte & 0x80);
 8001754:	f005 0280 	and.w	r2, r5, #128	; 0x80
 8001758:	4620      	mov	r0, r4
 800175a:	2180      	movs	r1, #128	; 0x80
 800175c:	f7ff f944 	bl	80009e8 <HAL_GPIO_WritePin>
		HAL_GPIO_WritePin(DISPLAY_WR_GPIO_Port, DISPLAY_WR_Pin, GPIO_PIN_RESET);
 8001760:	2200      	movs	r2, #0
 8001762:	f44f 7100 	mov.w	r1, #512	; 0x200
 8001766:	4620      	mov	r0, r4
 8001768:	f7ff f93e 	bl	80009e8 <HAL_GPIO_WritePin>
		send_8080_data_delay_100u(1);
 800176c:	2001      	movs	r0, #1
 800176e:	f7ff ffb1 	bl	80016d4 <send_8080_data_delay_100u>
		HAL_GPIO_WritePin(DISPLAY_WR_GPIO_Port, DISPLAY_WR_Pin, GPIO_PIN_SET);
 8001772:	4620      	mov	r0, r4
 8001774:	2201      	movs	r2, #1
 8001776:	f44f 7100 	mov.w	r1, #512	; 0x200
 800177a:	f7ff f935 	bl	80009e8 <HAL_GPIO_WritePin>
		send_8080_data_delay_100u(1);
 800177e:	2001      	movs	r0, #1
 8001780:	f7ff ffa8 	bl	80016d4 <send_8080_data_delay_100u>
 8001784:	e7b7      	b.n	80016f6 <send_8080_data+0xa>
 8001786:	bf00      	nop
 8001788:	40010c00 	.word	0x40010c00

0800178c <u8x8_byte_8080>:
  switch(msg)
 800178c:	3914      	subs	r1, #20
{
 800178e:	b508      	push	{r3, lr}
  switch(msg)
 8001790:	290c      	cmp	r1, #12
 8001792:	d81a      	bhi.n	80017ca <u8x8_byte_8080+0x3e>
 8001794:	e8df f001 	tbb	[pc, r1]
 8001798:	0719190b 	.word	0x0719190b
 800179c:	19191713 	.word	0x19191713
 80017a0:	19191919 	.word	0x19191919
 80017a4:	0d          	.byte	0x0d
 80017a5:	00          	.byte	0x00
    	send_8080_data(arg_int, arg_ptr);
 80017a6:	4619      	mov	r1, r3
 80017a8:	4610      	mov	r0, r2
 80017aa:	f7ff ff9f 	bl	80016ec <send_8080_data>
  return 1;
 80017ae:	2001      	movs	r0, #1
      break;
 80017b0:	bd08      	pop	{r3, pc}
    	HAL_GPIO_WritePin(DISPLAY_A0_GPIO_Port, DISPLAY_A0_Pin, arg_int);
 80017b2:	f44f 5100 	mov.w	r1, #8192	; 0x2000
    	HAL_GPIO_WritePin(DISPLAY_CS_GPIO_Port, DISPLAY_CS_Pin, GPIO_PIN_SET);
 80017b6:	4806      	ldr	r0, [pc, #24]	; (80017d0 <u8x8_byte_8080+0x44>)
 80017b8:	f7ff f916 	bl	80009e8 <HAL_GPIO_WritePin>
 80017bc:	e7f7      	b.n	80017ae <u8x8_byte_8080+0x22>
    	HAL_GPIO_WritePin(DISPLAY_CS_GPIO_Port, DISPLAY_CS_Pin, GPIO_PIN_RESET);
 80017be:	2200      	movs	r2, #0
    	HAL_GPIO_WritePin(DISPLAY_CS_GPIO_Port, DISPLAY_CS_Pin, GPIO_PIN_SET);
 80017c0:	f44f 4100 	mov.w	r1, #32768	; 0x8000
 80017c4:	e7f7      	b.n	80017b6 <u8x8_byte_8080+0x2a>
 80017c6:	2201      	movs	r2, #1
 80017c8:	e7fa      	b.n	80017c0 <u8x8_byte_8080+0x34>
      return 0;
 80017ca:	2000      	movs	r0, #0
}
 80017cc:	bd08      	pop	{r3, pc}
 80017ce:	bf00      	nop
 80017d0:	40010c00 	.word	0x40010c00

080017d4 <SystemClock_Config>:
/**
  * @brief System Clock Configuration
  * @retval None
  */
void SystemClock_Config(void)
{
 80017d4:	b530      	push	{r4, r5, lr}
 80017d6:	b091      	sub	sp, #68	; 0x44
  RCC_OscInitTypeDef RCC_OscInitStruct = {0};
 80017d8:	2228      	movs	r2, #40	; 0x28
 80017da:	2100      	movs	r1, #0
 80017dc:	a806      	add	r0, sp, #24
 80017de:	f001 fa87 	bl	8002cf0 <memset>
  RCC_ClkInitTypeDef RCC_ClkInitStruct = {0};
 80017e2:	2214      	movs	r2, #20
 80017e4:	2100      	movs	r1, #0
 80017e6:	a801      	add	r0, sp, #4
 80017e8:	f001 fa82 	bl	8002cf0 <memset>

  /** Initializes the CPU, AHB and APB busses clocks
  */
  RCC_OscInitStruct.OscillatorType = RCC_OSCILLATORTYPE_HSI;
  RCC_OscInitStruct.HSIState = RCC_HSI_ON;
  RCC_OscInitStruct.HSICalibrationValue = RCC_HSICALIBRATION_DEFAULT;
 80017ec:	2310      	movs	r3, #16
  RCC_OscInitStruct.OscillatorType = RCC_OSCILLATORTYPE_HSI;
 80017ee:	2402      	movs	r4, #2
  RCC_OscInitStruct.HSIState = RCC_HSI_ON;
 80017f0:	2501      	movs	r5, #1
  RCC_OscInitStruct.HSICalibrationValue = RCC_HSICALIBRATION_DEFAULT;
 80017f2:	930b      	str	r3, [sp, #44]	; 0x2c
  RCC_OscInitStruct.PLL.PLLState = RCC_PLL_ON;
  RCC_OscInitStruct.PLL.PLLSource = RCC_PLLSOURCE_HSI_DIV2;
  RCC_OscInitStruct.PLL.PLLMUL = RCC_PLL_MUL10;
 80017f4:	f44f 1300 	mov.w	r3, #2097152	; 0x200000
  if (HAL_RCC_OscConfig(&RCC_OscInitStruct) != HAL_OK)
 80017f8:	a806      	add	r0, sp, #24
  RCC_OscInitStruct.PLL.PLLMUL = RCC_PLL_MUL10;
 80017fa:	930f      	str	r3, [sp, #60]	; 0x3c
  RCC_OscInitStruct.OscillatorType = RCC_OSCILLATORTYPE_HSI;
 80017fc:	9406      	str	r4, [sp, #24]
  RCC_OscInitStruct.HSIState = RCC_HSI_ON;
 80017fe:	950a      	str	r5, [sp, #40]	; 0x28
  RCC_OscInitStruct.PLL.PLLState = RCC_PLL_ON;
 8001800:	940d      	str	r4, [sp, #52]	; 0x34
  if (HAL_RCC_OscConfig(&RCC_OscInitStruct) != HAL_OK)
 8001802:	f7ff f8fd 	bl	8000a00 <HAL_RCC_OscConfig>
  {
    Error_Handler();
  }
  /** Initializes the CPU, AHB and APB busses clocks
  */
  RCC_ClkInitStruct.ClockType = RCC_CLOCKTYPE_HCLK|RCC_CLOCKTYPE_SYSCLK
 8001806:	230f      	movs	r3, #15
                              |RCC_CLOCKTYPE_PCLK1|RCC_CLOCKTYPE_PCLK2;
  RCC_ClkInitStruct.SYSCLKSource = RCC_SYSCLKSOURCE_PLLCLK;
  RCC_ClkInitStruct.AHBCLKDivider = RCC_SYSCLK_DIV1;
  RCC_ClkInitStruct.APB1CLKDivider = RCC_HCLK_DIV2;
 8001808:	f44f 6280 	mov.w	r2, #1024	; 0x400
  RCC_ClkInitStruct.ClockType = RCC_CLOCKTYPE_HCLK|RCC_CLOCKTYPE_SYSCLK
 800180c:	9301      	str	r3, [sp, #4]
  RCC_ClkInitStruct.AHBCLKDivider = RCC_SYSCLK_DIV1;
 800180e:	2300      	movs	r3, #0
  RCC_ClkInitStruct.APB2CLKDivider = RCC_HCLK_DIV1;

  if (HAL_RCC_ClockConfig(&RCC_ClkInitStruct, FLASH_LATENCY_1) != HAL_OK)
 8001810:	4629      	mov	r1, r5
 8001812:	a801      	add	r0, sp, #4
  RCC_ClkInitStruct.SYSCLKSource = RCC_SYSCLKSOURCE_PLLCLK;
 8001814:	9402      	str	r4, [sp, #8]
  RCC_ClkInitStruct.AHBCLKDivider = RCC_SYSCLK_DIV1;
 8001816:	9303      	str	r3, [sp, #12]
  RCC_ClkInitStruct.APB1CLKDivider = RCC_HCLK_DIV2;
 8001818:	9204      	str	r2, [sp, #16]
  RCC_ClkInitStruct.APB2CLKDivider = RCC_HCLK_DIV1;
 800181a:	9305      	str	r3, [sp, #20]
  if (HAL_RCC_ClockConfig(&RCC_ClkInitStruct, FLASH_LATENCY_1) != HAL_OK)
 800181c:	f7ff faca 	bl	8000db4 <HAL_RCC_ClockConfig>
  {
    Error_Handler();
  }
}
 8001820:	b011      	add	sp, #68	; 0x44
 8001822:	bd30      	pop	{r4, r5, pc}

08001824 <main>:
{
 8001824:	e92d 4880 	stmdb	sp!, {r7, fp, lr}
 8001828:	b08d      	sub	sp, #52	; 0x34
  HAL_Init();
 800182a:	f7fe fcb3 	bl	8000194 <HAL_Init>
  SystemClock_Config();
 800182e:	f7ff ffd1 	bl	80017d4 <SystemClock_Config>
  * @param None
  * @retval None
  */
static void MX_GPIO_Init(void)
{
  GPIO_InitTypeDef GPIO_InitStruct = {0};
 8001832:	2210      	movs	r2, #16
 8001834:	2100      	movs	r1, #0
 8001836:	a807      	add	r0, sp, #28
 8001838:	f001 fa5a 	bl	8002cf0 <memset>

  /* GPIO Ports Clock Enable */
  __HAL_RCC_GPIOC_CLK_ENABLE();
 800183c:	4bb8      	ldr	r3, [pc, #736]	; (8001b20 <main+0x2fc>)
  __HAL_RCC_GPIOA_CLK_ENABLE();
  __HAL_RCC_GPIOB_CLK_ENABLE();

  /*Configure GPIO pin Output Level */
  HAL_GPIO_WritePin(LED_GPIO_Port, LED_Pin, GPIO_PIN_RESET);
 800183e:	f44f 5100 	mov.w	r1, #8192	; 0x2000
  __HAL_RCC_GPIOC_CLK_ENABLE();
 8001842:	699a      	ldr	r2, [r3, #24]
  HAL_GPIO_WritePin(LED_GPIO_Port, LED_Pin, GPIO_PIN_RESET);
 8001844:	48b7      	ldr	r0, [pc, #732]	; (8001b24 <main+0x300>)
  __HAL_RCC_GPIOC_CLK_ENABLE();
 8001846:	f042 0210 	orr.w	r2, r2, #16
 800184a:	619a      	str	r2, [r3, #24]
 800184c:	699a      	ldr	r2, [r3, #24]
  HAL_GPIO_WritePin(CAN_ENABLE_GPIO_Port, CAN_ENABLE_Pin, GPIO_PIN_RESET);

  /*Configure GPIO pin : LED_Pin */
  GPIO_InitStruct.Pin = LED_Pin;
  GPIO_InitStruct.Mode = GPIO_MODE_OUTPUT_PP;
  GPIO_InitStruct.Pull = GPIO_NOPULL;
 800184e:	2400      	movs	r4, #0
  __HAL_RCC_GPIOC_CLK_ENABLE();
 8001850:	f002 0210 	and.w	r2, r2, #16
 8001854:	9202      	str	r2, [sp, #8]
 8001856:	9a02      	ldr	r2, [sp, #8]
  __HAL_RCC_GPIOA_CLK_ENABLE();
 8001858:	699a      	ldr	r2, [r3, #24]
  GPIO_InitStruct.Mode = GPIO_MODE_OUTPUT_PP;
 800185a:	f04f 0801 	mov.w	r8, #1
  __HAL_RCC_GPIOA_CLK_ENABLE();
 800185e:	f042 0204 	orr.w	r2, r2, #4
 8001862:	619a      	str	r2, [r3, #24]
 8001864:	699a      	ldr	r2, [r3, #24]
  GPIO_InitStruct.Speed = GPIO_SPEED_FREQ_LOW;
 8001866:	f04f 0902 	mov.w	r9, #2
  __HAL_RCC_GPIOA_CLK_ENABLE();
 800186a:	f002 0204 	and.w	r2, r2, #4
 800186e:	9203      	str	r2, [sp, #12]
 8001870:	9a03      	ldr	r2, [sp, #12]
  __HAL_RCC_GPIOB_CLK_ENABLE();
 8001872:	699a      	ldr	r2, [r3, #24]
  GPIO_InitStruct.Pull = GPIO_NOPULL;
  GPIO_InitStruct.Speed = GPIO_SPEED_FREQ_LOW;
  HAL_GPIO_Init(GPIOB, &GPIO_InitStruct);

  /*Configure GPIO pin : CAN_ENABLE_Pin */
  GPIO_InitStruct.Pin = CAN_ENABLE_Pin;
 8001874:	f44f 7b80 	mov.w	fp, #256	; 0x100
  __HAL_RCC_GPIOB_CLK_ENABLE();
 8001878:	f042 0208 	orr.w	r2, r2, #8
 800187c:	619a      	str	r2, [r3, #24]
 800187e:	699b      	ldr	r3, [r3, #24]
  HAL_GPIO_WritePin(LED_GPIO_Port, LED_Pin, GPIO_PIN_RESET);
 8001880:	2200      	movs	r2, #0
  __HAL_RCC_GPIOB_CLK_ENABLE();
 8001882:	f003 0308 	and.w	r3, r3, #8
 8001886:	9304      	str	r3, [sp, #16]
 8001888:	9b04      	ldr	r3, [sp, #16]
  HAL_GPIO_WritePin(LED_GPIO_Port, LED_Pin, GPIO_PIN_RESET);
 800188a:	f7ff f8ad 	bl	80009e8 <HAL_GPIO_WritePin>
  HAL_GPIO_WritePin(GPIOB, DISPLAY_D0_Pin|DISPLAY_D1_Pin|DISPLAY_D2_Pin|BACKLIGHT_Pin
 800188e:	2200      	movs	r2, #0
 8001890:	f24f 31ff 	movw	r1, #62463	; 0xf3ff
 8001894:	48a4      	ldr	r0, [pc, #656]	; (8001b28 <main+0x304>)
 8001896:	f7ff f8a7 	bl	80009e8 <HAL_GPIO_WritePin>
  HAL_GPIO_WritePin(CAN_ENABLE_GPIO_Port, CAN_ENABLE_Pin, GPIO_PIN_RESET);
 800189a:	2200      	movs	r2, #0
 800189c:	f44f 7180 	mov.w	r1, #256	; 0x100
 80018a0:	48a2      	ldr	r0, [pc, #648]	; (8001b2c <main+0x308>)
 80018a2:	f7ff f8a1 	bl	80009e8 <HAL_GPIO_WritePin>
  GPIO_InitStruct.Pin = LED_Pin;
 80018a6:	f44f 5300 	mov.w	r3, #8192	; 0x2000
  HAL_GPIO_Init(LED_GPIO_Port, &GPIO_InitStruct);
 80018aa:	a907      	add	r1, sp, #28
 80018ac:	489d      	ldr	r0, [pc, #628]	; (8001b24 <main+0x300>)
  GPIO_InitStruct.Pin = LED_Pin;
 80018ae:	9307      	str	r3, [sp, #28]
  GPIO_InitStruct.Pull = GPIO_NOPULL;
 80018b0:	9409      	str	r4, [sp, #36]	; 0x24
  GPIO_InitStruct.Mode = GPIO_MODE_OUTPUT_PP;
 80018b2:	f8cd 8020 	str.w	r8, [sp, #32]
  GPIO_InitStruct.Speed = GPIO_SPEED_FREQ_LOW;
 80018b6:	f8cd 9028 	str.w	r9, [sp, #40]	; 0x28
  HAL_GPIO_Init(LED_GPIO_Port, &GPIO_InitStruct);
 80018ba:	f7fe ffad 	bl	8000818 <HAL_GPIO_Init>
  GPIO_InitStruct.Pin = BUTTON_0_Pin|BUTTON_1_Pin|BUTTON_2_Pin|BUTTON_3_Pin;
 80018be:	230f      	movs	r3, #15
  HAL_GPIO_Init(GPIOA, &GPIO_InitStruct);
 80018c0:	a907      	add	r1, sp, #28
 80018c2:	489a      	ldr	r0, [pc, #616]	; (8001b2c <main+0x308>)
  GPIO_InitStruct.Pin = BUTTON_0_Pin|BUTTON_1_Pin|BUTTON_2_Pin|BUTTON_3_Pin;
 80018c4:	9307      	str	r3, [sp, #28]
  GPIO_InitStruct.Mode = GPIO_MODE_INPUT;
 80018c6:	9408      	str	r4, [sp, #32]
  GPIO_InitStruct.Pull = GPIO_NOPULL;
 80018c8:	9409      	str	r4, [sp, #36]	; 0x24
  HAL_GPIO_Init(GPIOA, &GPIO_InitStruct);
 80018ca:	f7fe ffa5 	bl	8000818 <HAL_GPIO_Init>
  GPIO_InitStruct.Pin = DISPLAY_D0_Pin|DISPLAY_D1_Pin|DISPLAY_D2_Pin|BACKLIGHT_Pin
 80018ce:	f24f 33ff 	movw	r3, #62463	; 0xf3ff
  HAL_GPIO_Init(GPIOB, &GPIO_InitStruct);
 80018d2:	a907      	add	r1, sp, #28
 80018d4:	4894      	ldr	r0, [pc, #592]	; (8001b28 <main+0x304>)
  GPIO_InitStruct.Pin = DISPLAY_D0_Pin|DISPLAY_D1_Pin|DISPLAY_D2_Pin|BACKLIGHT_Pin
 80018d6:	9307      	str	r3, [sp, #28]
  GPIO_InitStruct.Pull = GPIO_NOPULL;
 80018d8:	9409      	str	r4, [sp, #36]	; 0x24
  GPIO_InitStruct.Mode = GPIO_MODE_OUTPUT_PP;
 80018da:	f8cd 8020 	str.w	r8, [sp, #32]
  GPIO_InitStruct.Speed = GPIO_SPEED_FREQ_LOW;
 80018de:	f8cd 9028 	str.w	r9, [sp, #40]	; 0x28
  HAL_GPIO_Init(GPIOB, &GPIO_InitStruct);
 80018e2:	f7fe ff99 	bl	8000818 <HAL_GPIO_Init>
  GPIO_InitStruct.Mode = GPIO_MODE_OUTPUT_PP;
  GPIO_InitStruct.Pull = GPIO_NOPULL;
  GPIO_InitStruct.Speed = GPIO_SPEED_FREQ_LOW;
  HAL_GPIO_Init(CAN_ENABLE_GPIO_Port, &GPIO_InitStruct);
 80018e6:	a907      	add	r1, sp, #28
 80018e8:	4890      	ldr	r0, [pc, #576]	; (8001b2c <main+0x308>)
  GPIO_InitStruct.Pull = GPIO_NOPULL;
 80018ea:	9409      	str	r4, [sp, #36]	; 0x24
  GPIO_InitStruct.Pin = CAN_ENABLE_Pin;
 80018ec:	f8cd b01c 	str.w	fp, [sp, #28]
  GPIO_InitStruct.Mode = GPIO_MODE_OUTPUT_PP;
 80018f0:	f8cd 8020 	str.w	r8, [sp, #32]
  GPIO_InitStruct.Speed = GPIO_SPEED_FREQ_LOW;
 80018f4:	f8cd 9028 	str.w	r9, [sp, #40]	; 0x28
  HAL_GPIO_Init(CAN_ENABLE_GPIO_Port, &GPIO_InitStruct);
 80018f8:	f7fe ff8e 	bl	8000818 <HAL_GPIO_Init>
  hcan.Init.Prescaler = 5;
 80018fc:	2305      	movs	r3, #5
  hcan.Instance = CAN1;
 80018fe:	4d8c      	ldr	r5, [pc, #560]	; (8001b30 <main+0x30c>)
  hcan.Init.Prescaler = 5;
 8001900:	4a8c      	ldr	r2, [pc, #560]	; (8001b34 <main+0x310>)
  if (HAL_CAN_Init(&hcan) != HAL_OK)
 8001902:	4628      	mov	r0, r5
  hcan.Init.Prescaler = 5;
 8001904:	e885 000c 	stmia.w	r5, {r2, r3}
  hcan.Init.TimeSeg1 = CAN_BS1_6TQ;
 8001908:	f44f 23a0 	mov.w	r3, #327680	; 0x50000
  hcan.Init.Mode = CAN_MODE_NORMAL;
 800190c:	60ac      	str	r4, [r5, #8]
  hcan.Init.TimeSeg1 = CAN_BS1_6TQ;
 800190e:	612b      	str	r3, [r5, #16]
  hcan.Init.SyncJumpWidth = CAN_SJW_1TQ;
 8001910:	60ec      	str	r4, [r5, #12]
  hcan.Init.TimeSeg2 = CAN_BS2_1TQ;
 8001912:	616c      	str	r4, [r5, #20]
  hcan.Init.TimeTriggeredMode = DISABLE;
 8001914:	762c      	strb	r4, [r5, #24]
  hcan.Init.AutoBusOff = DISABLE;
 8001916:	766c      	strb	r4, [r5, #25]
  hcan.Init.AutoWakeUp = DISABLE;
 8001918:	76ac      	strb	r4, [r5, #26]
  hcan.Init.AutoRetransmission = DISABLE;
 800191a:	76ec      	strb	r4, [r5, #27]
  hcan.Init.ReceiveFifoLocked = DISABLE;
 800191c:	772c      	strb	r4, [r5, #28]
  hcan.Init.TransmitFifoPriority = DISABLE;
 800191e:	776c      	strb	r4, [r5, #29]
  if (HAL_CAN_Init(&hcan) != HAL_OK)
 8001920:	f7fe fc6e 	bl	8000200 <HAL_CAN_Init>
  TIM_ClockConfigTypeDef sClockSourceConfig = {0};
 8001924:	4621      	mov	r1, r4
 8001926:	2210      	movs	r2, #16
 8001928:	a807      	add	r0, sp, #28
 800192a:	f001 f9e1 	bl	8002cf0 <memset>
  htim1.Instance = TIM1;
 800192e:	4e82      	ldr	r6, [pc, #520]	; (8001b38 <main+0x314>)
 8001930:	4b82      	ldr	r3, [pc, #520]	; (8001b3c <main+0x318>)
  htim1.Init.Period = 1000;
 8001932:	f44f 727a 	mov.w	r2, #1000	; 0x3e8
  htim1.Instance = TIM1;
 8001936:	6033      	str	r3, [r6, #0]
  htim1.Init.Prescaler = 40;
 8001938:	2328      	movs	r3, #40	; 0x28
  sClockSourceConfig.ClockSource = TIM_CLOCKSOURCE_INTERNAL;
 800193a:	f44f 5a80 	mov.w	sl, #4096	; 0x1000
  huart3.Init.BaudRate = 115200;
 800193e:	f44f 37e1 	mov.w	r7, #115200	; 0x1c200
  if (HAL_TIM_Base_Init(&htim1) != HAL_OK)
 8001942:	4630      	mov	r0, r6
  htim1.Init.Prescaler = 40;
 8001944:	6073      	str	r3, [r6, #4]
 8001946:	9301      	str	r3, [sp, #4]
  htim1.Init.Period = 1000;
 8001948:	60f2      	str	r2, [r6, #12]
  htim1.Init.CounterMode = TIM_COUNTERMODE_UP;
 800194a:	60b4      	str	r4, [r6, #8]
  htim1.Init.ClockDivision = TIM_CLOCKDIVISION_DIV1;
 800194c:	6134      	str	r4, [r6, #16]
  htim1.Init.RepetitionCounter = 0;
 800194e:	6174      	str	r4, [r6, #20]
  htim1.Init.AutoReloadPreload = TIM_AUTORELOAD_PRELOAD_DISABLE;
 8001950:	61b4      	str	r4, [r6, #24]
  TIM_MasterConfigTypeDef sMasterConfig = {0};
 8001952:	9405      	str	r4, [sp, #20]
 8001954:	9406      	str	r4, [sp, #24]
  if (HAL_TIM_Base_Init(&htim1) != HAL_OK)
 8001956:	f7ff fbd9 	bl	800110c <HAL_TIM_Base_Init>
  if (HAL_TIM_ConfigClockSource(&htim1, &sClockSourceConfig) != HAL_OK)
 800195a:	a907      	add	r1, sp, #28
 800195c:	4630      	mov	r0, r6
  sClockSourceConfig.ClockSource = TIM_CLOCKSOURCE_INTERNAL;
 800195e:	f8cd a01c 	str.w	sl, [sp, #28]
  if (HAL_TIM_ConfigClockSource(&htim1, &sClockSourceConfig) != HAL_OK)
 8001962:	f7ff fbf7 	bl	8001154 <HAL_TIM_ConfigClockSource>
  if (HAL_TIMEx_MasterConfigSynchronization(&htim1, &sMasterConfig) != HAL_OK)
 8001966:	a905      	add	r1, sp, #20
 8001968:	4630      	mov	r0, r6
  sMasterConfig.MasterOutputTrigger = TIM_TRGO_RESET;
 800196a:	9405      	str	r4, [sp, #20]
  sMasterConfig.MasterSlaveMode = TIM_MASTERSLAVEMODE_DISABLE;
 800196c:	9406      	str	r4, [sp, #24]
  if (HAL_TIMEx_MasterConfigSynchronization(&htim1, &sMasterConfig) != HAL_OK)
 800196e:	f7ff fc85 	bl	800127c <HAL_TIMEx_MasterConfigSynchronization>
  huart3.Instance = USART3;
 8001972:	4873      	ldr	r0, [pc, #460]	; (8001b40 <main+0x31c>)
  huart3.Init.BaudRate = 115200;
 8001974:	4a73      	ldr	r2, [pc, #460]	; (8001b44 <main+0x320>)
  huart3.Init.WordLength = UART_WORDLENGTH_8B;
 8001976:	6084      	str	r4, [r0, #8]
  huart3.Init.BaudRate = 115200;
 8001978:	e880 0084 	stmia.w	r0, {r2, r7}
  huart3.Init.Mode = UART_MODE_TX_RX;
 800197c:	220c      	movs	r2, #12
  huart3.Init.StopBits = UART_STOPBITS_1;
 800197e:	60c4      	str	r4, [r0, #12]
  huart3.Init.Parity = UART_PARITY_NONE;
 8001980:	6104      	str	r4, [r0, #16]
  huart3.Init.Mode = UART_MODE_TX_RX;
 8001982:	6142      	str	r2, [r0, #20]
  huart3.Init.HwFlowCtl = UART_HWCONTROL_NONE;
 8001984:	6184      	str	r4, [r0, #24]
  huart3.Init.OverSampling = UART_OVERSAMPLING_16;
 8001986:	61c4      	str	r4, [r0, #28]
  if (HAL_UART_Init(&huart3) != HAL_OK)
 8001988:	f7ff fcfa 	bl	8001380 <HAL_UART_Init>
  TIM_ClockConfigTypeDef sClockSourceConfig = {0};
 800198c:	4621      	mov	r1, r4
 800198e:	2210      	movs	r2, #16
 8001990:	a807      	add	r0, sp, #28
 8001992:	f001 f9ad 	bl	8002cf0 <memset>
  htim2.Instance = TIM2;
 8001996:	4f6c      	ldr	r7, [pc, #432]	; (8001b48 <main+0x324>)
  htim2.Init.Prescaler = 40;
 8001998:	9b01      	ldr	r3, [sp, #4]
  htim2.Instance = TIM2;
 800199a:	f04f 4280 	mov.w	r2, #1073741824	; 0x40000000
  htim2.Init.Prescaler = 40;
 800199e:	607b      	str	r3, [r7, #4]
  htim2.Init.Period = 10;
 80019a0:	230a      	movs	r3, #10
  if (HAL_TIM_Base_Init(&htim2) != HAL_OK)
 80019a2:	4638      	mov	r0, r7
  htim2.Instance = TIM2;
 80019a4:	603a      	str	r2, [r7, #0]
  htim2.Init.Period = 10;
 80019a6:	60fb      	str	r3, [r7, #12]
  TIM_MasterConfigTypeDef sMasterConfig = {0};
 80019a8:	9405      	str	r4, [sp, #20]
 80019aa:	9406      	str	r4, [sp, #24]
  htim2.Init.CounterMode = TIM_COUNTERMODE_UP;
 80019ac:	60bc      	str	r4, [r7, #8]
  htim2.Init.ClockDivision = TIM_CLOCKDIVISION_DIV1;
 80019ae:	613c      	str	r4, [r7, #16]
  htim2.Init.AutoReloadPreload = TIM_AUTORELOAD_PRELOAD_DISABLE;
 80019b0:	61bc      	str	r4, [r7, #24]
  if (HAL_TIM_Base_Init(&htim2) != HAL_OK)
 80019b2:	f7ff fbab 	bl	800110c <HAL_TIM_Base_Init>
  if (HAL_TIM_ConfigClockSource(&htim2, &sClockSourceConfig) != HAL_OK)
 80019b6:	a907      	add	r1, sp, #28
 80019b8:	4638      	mov	r0, r7
  sClockSourceConfig.ClockSource = TIM_CLOCKSOURCE_INTERNAL;
 80019ba:	f8cd a01c 	str.w	sl, [sp, #28]
  if (HAL_TIM_ConfigClockSource(&htim2, &sClockSourceConfig) != HAL_OK)
 80019be:	f7ff fbc9 	bl	8001154 <HAL_TIM_ConfigClockSource>
  if (HAL_TIMEx_MasterConfigSynchronization(&htim2, &sMasterConfig) != HAL_OK)
 80019c2:	a905      	add	r1, sp, #20
 80019c4:	4638      	mov	r0, r7
  sMasterConfig.MasterOutputTrigger = TIM_TRGO_RESET;
 80019c6:	9405      	str	r4, [sp, #20]
  sMasterConfig.MasterSlaveMode = TIM_MASTERSLAVEMODE_DISABLE;
 80019c8:	9406      	str	r4, [sp, #24]
  if (HAL_TIMEx_MasterConfigSynchronization(&htim2, &sMasterConfig) != HAL_OK)
 80019ca:	f7ff fc57 	bl	800127c <HAL_TIMEx_MasterConfigSynchronization>
  sFilterConfig.SlaveStartFilterBank = 14;
 80019ce:	230e      	movs	r3, #14
  sFilterConfig.FilterBank = 0;
 80019d0:	495e      	ldr	r1, [pc, #376]	; (8001b4c <main+0x328>)
  if (HAL_CAN_ConfigFilter(&hcan, &sFilterConfig) != HAL_OK)
 80019d2:	4628      	mov	r0, r5
  sFilterConfig.SlaveStartFilterBank = 14;
 80019d4:	624b      	str	r3, [r1, #36]	; 0x24
  sFilterConfig.FilterBank = 0;
 80019d6:	614c      	str	r4, [r1, #20]
  sFilterConfig.FilterMode = CAN_FILTERMODE_IDMASK;
 80019d8:	618c      	str	r4, [r1, #24]
  sFilterConfig.FilterIdHigh = 0x0000;
 80019da:	600c      	str	r4, [r1, #0]
  sFilterConfig.FilterIdLow = 0x0000;
 80019dc:	604c      	str	r4, [r1, #4]
  sFilterConfig.FilterMaskIdHigh = 0x0000;
 80019de:	608c      	str	r4, [r1, #8]
  sFilterConfig.FilterMaskIdLow = 0x0000;
 80019e0:	60cc      	str	r4, [r1, #12]
  sFilterConfig.FilterFIFOAssignment = CAN_RX_FIFO0;
 80019e2:	610c      	str	r4, [r1, #16]
  sFilterConfig.FilterScale = CAN_FILTERSCALE_32BIT;
 80019e4:	f8c1 801c 	str.w	r8, [r1, #28]
  sFilterConfig.FilterActivation = ENABLE;
 80019e8:	f8c1 8020 	str.w	r8, [r1, #32]
  if (HAL_CAN_ConfigFilter(&hcan, &sFilterConfig) != HAL_OK)
 80019ec:	f7fe fc83 	bl	80002f6 <HAL_CAN_ConfigFilter>
  if (HAL_CAN_Start(&hcan) != HAL_OK)
 80019f0:	4628      	mov	r0, r5
 80019f2:	f7fe fcec 	bl	80003ce <HAL_CAN_Start>
  if (HAL_CAN_ActivateNotification(&hcan, CAN_IT_RX_FIFO0_MSG_PENDING | CAN_IT_TX_MAILBOX_EMPTY) != HAL_OK)
 80019f6:	2103      	movs	r1, #3
 80019f8:	4628      	mov	r0, r5
 80019fa:	f7fe fd89 	bl	8000510 <HAL_CAN_ActivateNotification>
  TxHeader.StdId = BOILER_TEMP_CAN_ID;
 80019fe:	22d0      	movs	r2, #208	; 0xd0
 8001a00:	4b53      	ldr	r3, [pc, #332]	; (8001b50 <main+0x32c>)
  TxData[2] = 3;
 8001a02:	2103      	movs	r1, #3
  TxHeader.ExtId = 0x00;
 8001a04:	e883 0014 	stmia.w	r3, {r2, r4}
  TxHeader.DLC = 4;
 8001a08:	2204      	movs	r2, #4
  TxHeader.RTR = CAN_RTR_DATA;
 8001a0a:	60dc      	str	r4, [r3, #12]
  TxHeader.DLC = 4;
 8001a0c:	611a      	str	r2, [r3, #16]
  TxHeader.IDE = CAN_ID_STD;
 8001a0e:	609c      	str	r4, [r3, #8]
  TxHeader.TransmitGlobalTime = DISABLE;
 8001a10:	751c      	strb	r4, [r3, #20]
  TxData[0] = 1;
 8001a12:	4b50      	ldr	r3, [pc, #320]	; (8001b54 <main+0x330>)
  HAL_TIM_Base_Start_IT(&htim1);
 8001a14:	4630      	mov	r0, r6
  TxData[2] = 3;
 8001a16:	7099      	strb	r1, [r3, #2]
  TxData[3] = 4;
 8001a18:	70da      	strb	r2, [r3, #3]
  TxData[0] = 1;
 8001a1a:	f883 8000 	strb.w	r8, [r3]
  TxData[1] = 2;
 8001a1e:	f883 9001 	strb.w	r9, [r3, #1]
  HAL_TIM_Base_Start_IT(&htim1);
 8001a22:	f7ff fa85 	bl	8000f30 <HAL_TIM_Base_Start_IT>
  HAL_TIM_Base_Start_IT(&htim2);
 8001a26:	4638      	mov	r0, r7
 8001a28:	f7ff fa82 	bl	8000f30 <HAL_TIM_Base_Start_IT>
  HAL_GPIO_WritePin(BACKLIGHT_GPIO_Port, BACKLIGHT_Pin, GPIO_PIN_SET);
 8001a2c:	4642      	mov	r2, r8
 8001a2e:	4651      	mov	r1, sl
 8001a30:	483d      	ldr	r0, [pc, #244]	; (8001b28 <main+0x304>)
 8001a32:	f7fe ffd9 	bl	80009e8 <HAL_GPIO_WritePin>
  HAL_GPIO_WritePin(DISPLAY_RD_GPIO_Port, DISPLAY_RD_Pin, GPIO_PIN_SET);
 8001a36:	4642      	mov	r2, r8
 8001a38:	4659      	mov	r1, fp
 8001a3a:	483b      	ldr	r0, [pc, #236]	; (8001b28 <main+0x304>)
 8001a3c:	f7fe ffd4 	bl	80009e8 <HAL_GPIO_WritePin>
  HAL_GPIO_WritePin(DISPLAY_CS_GPIO_Port, DISPLAY_CS_Pin, GPIO_PIN_SET);
 8001a40:	4642      	mov	r2, r8
 8001a42:	f44f 4100 	mov.w	r1, #32768	; 0x8000
 8001a46:	4838      	ldr	r0, [pc, #224]	; (8001b28 <main+0x304>)
 8001a48:	f7fe ffce 	bl	80009e8 <HAL_GPIO_WritePin>
    u8g2_Setup_st7565_ea_dogm128_1(&u8g2, U8G2_R2, u8x8_byte_8080, u8x8_gpio_and_delay_8080);
 8001a4c:	4b42      	ldr	r3, [pc, #264]	; (8001b58 <main+0x334>)
 8001a4e:	4a43      	ldr	r2, [pc, #268]	; (8001b5c <main+0x338>)
 8001a50:	4943      	ldr	r1, [pc, #268]	; (8001b60 <main+0x33c>)
 8001a52:	4844      	ldr	r0, [pc, #272]	; (8001b64 <main+0x340>)
 8001a54:	f000 faf0 	bl	8002038 <u8g2_Setup_st7565_ea_dogm128_1>
  u8g2_InitDisplay(&u8g2);
 8001a58:	4842      	ldr	r0, [pc, #264]	; (8001b64 <main+0x340>)
 8001a5a:	f001 f8af 	bl	8002bbc <u8x8_InitDisplay>
  u8g2_SetPowerSave(&u8g2, 0);
 8001a5e:	4621      	mov	r1, r4
 8001a60:	4840      	ldr	r0, [pc, #256]	; (8001b64 <main+0x340>)
 8001a62:	f001 f8b3 	bl	8002bcc <u8x8_SetPowerSave>
  u8g2_SetContrast(&u8g2, 95);
 8001a66:	215f      	movs	r1, #95	; 0x5f
 8001a68:	483e      	ldr	r0, [pc, #248]	; (8001b64 <main+0x340>)
 8001a6a:	f001 f8b7 	bl	8002bdc <u8x8_SetContrast>
	memset(tmp_string, 0, 20);
 8001a6e:	4621      	mov	r1, r4
 8001a70:	2214      	movs	r2, #20
 8001a72:	a807      	add	r0, sp, #28
 8001a74:	f001 f93c 	bl	8002cf0 <memset>
  u8g2_FirstPage(&u8g2);
 8001a78:	483a      	ldr	r0, [pc, #232]	; (8001b64 <main+0x340>)
 8001a7a:	f000 faab 	bl	8001fd4 <u8g2_FirstPage>
	    u8g2_SetFont(&u8g2, u8g2_font_luBS08_tf);
 8001a7e:	4e3a      	ldr	r6, [pc, #232]	; (8001b68 <main+0x344>)
 8001a80:	4c38      	ldr	r4, [pc, #224]	; (8001b64 <main+0x340>)
		u8g2_DrawStr(&u8g2, 0, 14, "Hello world ");
 8001a82:	4d3a      	ldr	r5, [pc, #232]	; (8001b6c <main+0x348>)
	    u8g2_SetFont(&u8g2, u8g2_font_luBS08_tf);
 8001a84:	4631      	mov	r1, r6
 8001a86:	4620      	mov	r0, r4
 8001a88:	f000 fd5a 	bl	8002540 <u8g2_SetFont>
		u8g2_DrawStr(&u8g2, 0, 14, "Hello world ");
 8001a8c:	220e      	movs	r2, #14
 8001a8e:	462b      	mov	r3, r5
 8001a90:	2100      	movs	r1, #0
 8001a92:	4620      	mov	r0, r4
 8001a94:	f000 fd1a 	bl	80024cc <u8g2_DrawStr>
	 } while (u8g2_NextPage(&u8g2));
 8001a98:	4620      	mov	r0, r4
 8001a9a:	f000 faa8 	bl	8001fee <u8g2_NextPage>
 8001a9e:	4602      	mov	r2, r0
 8001aa0:	2800      	cmp	r0, #0
 8001aa2:	d1ef      	bne.n	8001a84 <main+0x260>
  HAL_GPIO_WritePin(CAN_ENABLE_GPIO_Port, CAN_ENABLE_Pin, GPIO_PIN_RESET);
 8001aa4:	f44f 7180 	mov.w	r1, #256	; 0x100
 8001aa8:	4820      	ldr	r0, [pc, #128]	; (8001b2c <main+0x308>)
 8001aaa:	f7fe ff9d 	bl	80009e8 <HAL_GPIO_WritePin>
	  if (global_button_status != 0) {
 8001aae:	4d30      	ldr	r5, [pc, #192]	; (8001b70 <main+0x34c>)
		  HAL_GPIO_TogglePin(GPIOC, LED_Pin);
 8001ab0:	4e1c      	ldr	r6, [pc, #112]	; (8001b24 <main+0x300>)
	  sprintf(screen1_data.str_boiler_value, "ddd1");
 8001ab2:	4c30      	ldr	r4, [pc, #192]	; (8001b74 <main+0x350>)
	  if (global_button_status != 0) {
 8001ab4:	782b      	ldrb	r3, [r5, #0]
 8001ab6:	b133      	cbz	r3, 8001ac6 <main+0x2a2>
		  global_button_status = 0;
 8001ab8:	2300      	movs	r3, #0
		  HAL_GPIO_TogglePin(GPIOC, LED_Pin);
 8001aba:	f44f 5100 	mov.w	r1, #8192	; 0x2000
 8001abe:	4630      	mov	r0, r6
		  global_button_status = 0;
 8001ac0:	702b      	strb	r3, [r5, #0]
		  HAL_GPIO_TogglePin(GPIOC, LED_Pin);
 8001ac2:	f7fe ff96 	bl	80009f2 <HAL_GPIO_TogglePin>
	  HAL_Delay(100);
 8001ac6:	2064      	movs	r0, #100	; 0x64
 8001ac8:	f7fe fb88 	bl	80001dc <HAL_Delay>
	  testCounter++;
 8001acc:	4a2a      	ldr	r2, [pc, #168]	; (8001b78 <main+0x354>)
	  memset(tmp_string, 0, 20);
 8001ace:	2100      	movs	r1, #0
	  testCounter++;
 8001ad0:	6813      	ldr	r3, [r2, #0]
	  memset(tmp_string, 0, 20);
 8001ad2:	a807      	add	r0, sp, #28
	  testCounter++;
 8001ad4:	3301      	adds	r3, #1
 8001ad6:	6013      	str	r3, [r2, #0]
	  memset(tmp_string, 0, 20);
 8001ad8:	2214      	movs	r2, #20
 8001ada:	f001 f909 	bl	8002cf0 <memset>
	  	 printf("OK2!\r\n");
 8001ade:	4827      	ldr	r0, [pc, #156]	; (8001b7c <main+0x358>)
 8001ae0:	f001 f96a 	bl	8002db8 <puts>
	  sprintf(screen1_data.str_boiler_value, "ddd1");
 8001ae4:	4926      	ldr	r1, [pc, #152]	; (8001b80 <main+0x35c>)
 8001ae6:	4620      	mov	r0, r4
 8001ae8:	f001 f992 	bl	8002e10 <strcpy>
	  sprintf(screen1_data.str_tempreture_value_1, "ddd2");
 8001aec:	4925      	ldr	r1, [pc, #148]	; (8001b84 <main+0x360>)
 8001aee:	4826      	ldr	r0, [pc, #152]	; (8001b88 <main+0x364>)
 8001af0:	f001 f98e 	bl	8002e10 <strcpy>
	  sprintf(screen1_data.str_humidity_value_1, "ddd3");
 8001af4:	4925      	ldr	r1, [pc, #148]	; (8001b8c <main+0x368>)
 8001af6:	4826      	ldr	r0, [pc, #152]	; (8001b90 <main+0x36c>)
 8001af8:	f001 f98a 	bl	8002e10 <strcpy>
	  sprintf(screen1_data.str_tempreture_value_2, "ddd4");
 8001afc:	4925      	ldr	r1, [pc, #148]	; (8001b94 <main+0x370>)
 8001afe:	4826      	ldr	r0, [pc, #152]	; (8001b98 <main+0x374>)
 8001b00:	f001 f986 	bl	8002e10 <strcpy>
	  sprintf(screen1_data.str_humidity_value_2, "ddd5");
 8001b04:	4925      	ldr	r1, [pc, #148]	; (8001b9c <main+0x378>)
 8001b06:	4826      	ldr	r0, [pc, #152]	; (8001ba0 <main+0x37c>)
 8001b08:	f001 f982 	bl	8002e10 <strcpy>
	  sprintf(screen1_data.str_pump_status_1, "ddd6");
 8001b0c:	4925      	ldr	r1, [pc, #148]	; (8001ba4 <main+0x380>)
 8001b0e:	4826      	ldr	r0, [pc, #152]	; (8001ba8 <main+0x384>)
 8001b10:	f001 f97e 	bl	8002e10 <strcpy>
	  sprintf(screen1_data.str_pump_status_2, "ddd7");
 8001b14:	4925      	ldr	r1, [pc, #148]	; (8001bac <main+0x388>)
 8001b16:	4826      	ldr	r0, [pc, #152]	; (8001bb0 <main+0x38c>)
 8001b18:	f001 f97a 	bl	8002e10 <strcpy>
 8001b1c:	e04a      	b.n	8001bb4 <main+0x390>
 8001b1e:	bf00      	nop
 8001b20:	40021000 	.word	0x40021000
 8001b24:	40011000 	.word	0x40011000
 8001b28:	40010c00 	.word	0x40010c00
 8001b2c:	40010800 	.word	0x40010800
 8001b30:	200002d4 	.word	0x200002d4
 8001b34:	40006400 	.word	0x40006400
 8001b38:	20000340 	.word	0x20000340
 8001b3c:	40012c00 	.word	0x40012c00
 8001b40:	20000228 	.word	0x20000228
 8001b44:	40004800 	.word	0x40004800
 8001b48:	200002fc 	.word	0x200002fc
 8001b4c:	200001bc 	.word	0x200001bc
 8001b50:	2000026c 	.word	0x2000026c
 8001b54:	200001b4 	.word	0x200001b4
 8001b58:	080015b9 	.word	0x080015b9
 8001b5c:	0800178d 	.word	0x0800178d
 8001b60:	08005a24 	.word	0x08005a24
 8001b64:	200000a0 	.word	0x200000a0
 8001b68:	08005123 	.word	0x08005123
 8001b6c:	08003d2b 	.word	0x08003d2b
 8001b70:	2000008f 	.word	0x2000008f
 8001b74:	20000284 	.word	0x20000284
 8001b78:	20000098 	.word	0x20000098
 8001b7c:	08003d38 	.word	0x08003d38
 8001b80:	08003d3e 	.word	0x08003d3e
 8001b84:	08003d43 	.word	0x08003d43
 8001b88:	2000028e 	.word	0x2000028e
 8001b8c:	08003d48 	.word	0x08003d48
 8001b90:	20000298 	.word	0x20000298
 8001b94:	08003d4d 	.word	0x08003d4d
 8001b98:	200002a2 	.word	0x200002a2
 8001b9c:	08003d52 	.word	0x08003d52
 8001ba0:	200002ac 	.word	0x200002ac
 8001ba4:	08003d57 	.word	0x08003d57
 8001ba8:	200002b6 	.word	0x200002b6
 8001bac:	08003d5c 	.word	0x08003d5c
 8001bb0:	200002c0 	.word	0x200002c0
	  display_update2(&u8g2, &screen1_data, &screen1_error_holder);
 8001bb4:	4a02      	ldr	r2, [pc, #8]	; (8001bc0 <main+0x39c>)
 8001bb6:	4621      	mov	r1, r4
 8001bb8:	4802      	ldr	r0, [pc, #8]	; (8001bc4 <main+0x3a0>)
 8001bba:	f7ff fc6b 	bl	8001494 <display_update2>
	  if (global_button_status != 0) {
 8001bbe:	e779      	b.n	8001ab4 <main+0x290>
 8001bc0:	200001e4 	.word	0x200001e4
 8001bc4:	200000a0 	.word	0x200000a0

08001bc8 <HAL_CAN_TxMailbox0CompleteCallback>:

}

/* USER CODE BEGIN 4 */
void HAL_CAN_TxMailbox0CompleteCallback(CAN_HandleTypeDef *hcan_)
{
 8001bc8:	4770      	bx	lr
	...

08001bcc <HAL_CAN_RxFifo0MsgPendingCallback>:
}



void HAL_CAN_RxFifo0MsgPendingCallback(CAN_HandleTypeDef *hcan_)
{
 8001bcc:	b5f8      	push	{r3, r4, r5, r6, r7, lr}
	HAL_CAN_GetRxMessage(&hcan, CAN_RX_FIFO0, &RxHeader, RxData);
 8001bce:	4c1b      	ldr	r4, [pc, #108]	; (8001c3c <HAL_CAN_RxFifo0MsgPendingCallback+0x70>)
 8001bd0:	4d1b      	ldr	r5, [pc, #108]	; (8001c40 <HAL_CAN_RxFifo0MsgPendingCallback+0x74>)
 8001bd2:	4623      	mov	r3, r4
 8001bd4:	462a      	mov	r2, r5
 8001bd6:	2100      	movs	r1, #0
 8001bd8:	481a      	ldr	r0, [pc, #104]	; (8001c44 <HAL_CAN_RxFifo0MsgPendingCallback+0x78>)
 8001bda:	f7fe fc23 	bl	8000424 <HAL_CAN_GetRxMessage>
//	HAL_GPIO_TogglePin(GPIOC, LED_Pin);

	 uint32_t u;
	  u = RxData[0];
	  u += (uint32_t)(RxData[1] << 8);
	  u += (uint32_t)(RxData[2] << 16);
 8001bde:	78a0      	ldrb	r0, [r4, #2]
	  u += (uint32_t)(RxData[1] << 8);
 8001be0:	7866      	ldrb	r6, [r4, #1]
	  u = RxData[0];
 8001be2:	7827      	ldrb	r7, [r4, #0]
	  u += (uint32_t)(RxData[2] << 16);
 8001be4:	0403      	lsls	r3, r0, #16
	  u += (uint32_t)(RxData[3] << 24);




	if(RxHeader.StdId==0xf0){
 8001be6:	682a      	ldr	r2, [r5, #0]
	  u += (uint32_t)(RxData[2] << 16);
 8001be8:	eb03 2306 	add.w	r3, r3, r6, lsl #8
	  u += (uint32_t)(RxData[3] << 24);
 8001bec:	78e1      	ldrb	r1, [r4, #3]
	  u += (uint32_t)(RxData[2] << 16);
 8001bee:	443b      	add	r3, r7
	if(RxHeader.StdId==0xf0){
 8001bf0:	2af0      	cmp	r2, #240	; 0xf0
	  u += (uint32_t)(RxData[3] << 24);
 8001bf2:	eb03 6301 	add.w	r3, r3, r1, lsl #24
	if(RxHeader.StdId==0xf0){
 8001bf6:	d102      	bne.n	8001bfe <HAL_CAN_RxFifo0MsgPendingCallback+0x32>
		pressure = u;
 8001bf8:	4a13      	ldr	r2, [pc, #76]	; (8001c48 <HAL_CAN_RxFifo0MsgPendingCallback+0x7c>)
 8001bfa:	6013      	str	r3, [r2, #0]
 8001bfc:	bdf8      	pop	{r3, r4, r5, r6, r7, pc}
	}else if(RxHeader.StdId==0xf0+1){
 8001bfe:	2af1      	cmp	r2, #241	; 0xf1
 8001c00:	d107      	bne.n	8001c12 <HAL_CAN_RxFifo0MsgPendingCallback+0x46>
		temperature = u;
 8001c02:	4a12      	ldr	r2, [pc, #72]	; (8001c4c <HAL_CAN_RxFifo0MsgPendingCallback+0x80>)
 8001c04:	6013      	str	r3, [r2, #0]
		temperature1timeout = 0;
 8001c06:	2300      	movs	r3, #0
 8001c08:	4a11      	ldr	r2, [pc, #68]	; (8001c50 <HAL_CAN_RxFifo0MsgPendingCallback+0x84>)
 8001c0a:	7013      	strb	r3, [r2, #0]
		temperature2timeout = 0;
 8001c0c:	4a11      	ldr	r2, [pc, #68]	; (8001c54 <HAL_CAN_RxFifo0MsgPendingCallback+0x88>)
	}else if(RxHeader.StdId==0xf0+2){
		humidity = u;
		humidity1timeout = 0;
		humidity2timeout = 0;
 8001c0e:	7013      	strb	r3, [r2, #0]
 8001c10:	bdf8      	pop	{r3, r4, r5, r6, r7, pc}
	}else if(RxHeader.StdId==0xf0+2){
 8001c12:	2af2      	cmp	r2, #242	; 0xf2
 8001c14:	d106      	bne.n	8001c24 <HAL_CAN_RxFifo0MsgPendingCallback+0x58>
		humidity = u;
 8001c16:	4a10      	ldr	r2, [pc, #64]	; (8001c58 <HAL_CAN_RxFifo0MsgPendingCallback+0x8c>)
 8001c18:	6013      	str	r3, [r2, #0]
		humidity1timeout = 0;
 8001c1a:	2300      	movs	r3, #0
 8001c1c:	4a0f      	ldr	r2, [pc, #60]	; (8001c5c <HAL_CAN_RxFifo0MsgPendingCallback+0x90>)
 8001c1e:	7013      	strb	r3, [r2, #0]
		humidity2timeout = 0;
 8001c20:	4a0f      	ldr	r2, [pc, #60]	; (8001c60 <HAL_CAN_RxFifo0MsgPendingCallback+0x94>)
 8001c22:	e7f4      	b.n	8001c0e <HAL_CAN_RxFifo0MsgPendingCallback+0x42>
	}else if(RxHeader.StdId==RELAY_CONTROL_CAN_ID){
//		Control_peripheral_relays(RxData[0]);
	}else if(RxHeader.StdId==BOILER_TEMP_CAN_ID){
 8001c24:	2ad0      	cmp	r2, #208	; 0xd0
 8001c26:	d107      	bne.n	8001c38 <HAL_CAN_RxFifo0MsgPendingCallback+0x6c>
		input_packet_boiler_temperature = u;
		for (int i=0; i<4 ;++i) {
			((uint8_t*)&input_packet_boiler_temperature)[i] = RxData[i];
		}
		input_packet_boiler_timeout = 0;
 8001c28:	2200      	movs	r2, #0
		input_packet_boiler_temperature = u;
 8001c2a:	4b0e      	ldr	r3, [pc, #56]	; (8001c64 <HAL_CAN_RxFifo0MsgPendingCallback+0x98>)
			((uint8_t*)&input_packet_boiler_temperature)[i] = RxData[i];
 8001c2c:	701f      	strb	r7, [r3, #0]
 8001c2e:	705e      	strb	r6, [r3, #1]
 8001c30:	7098      	strb	r0, [r3, #2]
 8001c32:	70d9      	strb	r1, [r3, #3]
		input_packet_boiler_timeout = 0;
 8001c34:	4b0c      	ldr	r3, [pc, #48]	; (8001c68 <HAL_CAN_RxFifo0MsgPendingCallback+0x9c>)
 8001c36:	701a      	strb	r2, [r3, #0]
 8001c38:	bdf8      	pop	{r3, r4, r5, r6, r7, pc}
 8001c3a:	bf00      	nop
 8001c3c:	200002ca 	.word	0x200002ca
 8001c40:	20000208 	.word	0x20000208
 8001c44:	200002d4 	.word	0x200002d4
 8001c48:	20000204 	.word	0x20000204
 8001c4c:	20000268 	.word	0x20000268
 8001c50:	20000096 	.word	0x20000096
 8001c54:	20000097 	.word	0x20000097
 8001c58:	2000033c 	.word	0x2000033c
 8001c5c:	20000090 	.word	0x20000090
 8001c60:	20000091 	.word	0x20000091
 8001c64:	20000200 	.word	0x20000200
 8001c68:	20000092 	.word	0x20000092

08001c6c <HAL_TIM_PeriodElapsedCallback>:
	}
}

void HAL_TIM_PeriodElapsedCallback(TIM_HandleTypeDef *htim)
{
 8001c6c:	b508      	push	{r3, lr}
  if( htim->Instance == TIM1 ){
 8001c6e:	4a0e      	ldr	r2, [pc, #56]	; (8001ca8 <HAL_TIM_PeriodElapsedCallback+0x3c>)
 8001c70:	6803      	ldr	r3, [r0, #0]
 8001c72:	4293      	cmp	r3, r2
 8001c74:	d10c      	bne.n	8001c90 <HAL_TIM_PeriodElapsedCallback+0x24>
//
//	if(input_packet_boiler_timeout>= DATA_WAIT_TIMEOUT){
//		input_packet_boiler_timeout = DATA_WAIT_TIMEOUT;
//	}

	  button_debounce();
 8001c76:	f7ff fceb 	bl	8001650 <button_debounce>

	  test_counter++;
 8001c7a:	4b0c      	ldr	r3, [pc, #48]	; (8001cac <HAL_TIM_PeriodElapsedCallback+0x40>)
 8001c7c:	681a      	ldr	r2, [r3, #0]
 8001c7e:	3201      	adds	r2, #1
 8001c80:	601a      	str	r2, [r3, #0]
	  if (test_counter >= 1000) {
 8001c82:	681a      	ldr	r2, [r3, #0]
 8001c84:	f5b2 7f7a 	cmp.w	r2, #1000	; 0x3e8
 8001c88:	d30d      	bcc.n	8001ca6 <HAL_TIM_PeriodElapsedCallback+0x3a>
		  test_counter = 0;
 8001c8a:	2200      	movs	r2, #0
 8001c8c:	601a      	str	r2, [r3, #0]
 8001c8e:	bd08      	pop	{r3, pc}
//		  HAL_GPIO_TogglePin(GPIOC, LED_Pin);
	  }
 } else if ( htim->Instance == TIM2 ) {
 8001c90:	f1b3 4f80 	cmp.w	r3, #1073741824	; 0x40000000
 8001c94:	d107      	bne.n	8001ca6 <HAL_TIM_PeriodElapsedCallback+0x3a>
	 if (micro_delay_counter > 0 ) {
 8001c96:	4a06      	ldr	r2, [pc, #24]	; (8001cb0 <HAL_TIM_PeriodElapsedCallback+0x44>)
 8001c98:	8813      	ldrh	r3, [r2, #0]
 8001c9a:	b29b      	uxth	r3, r3
 8001c9c:	b11b      	cbz	r3, 8001ca6 <HAL_TIM_PeriodElapsedCallback+0x3a>
		 micro_delay_counter--;
 8001c9e:	8813      	ldrh	r3, [r2, #0]
 8001ca0:	3b01      	subs	r3, #1
 8001ca2:	b29b      	uxth	r3, r3
 8001ca4:	8013      	strh	r3, [r2, #0]
 8001ca6:	bd08      	pop	{r3, pc}
 8001ca8:	40012c00 	.word	0x40012c00
 8001cac:	2000009c 	.word	0x2000009c
 8001cb0:	20000094 	.word	0x20000094

08001cb4 <HAL_MspInit>:
{
  /* USER CODE BEGIN MspInit 0 */

  /* USER CODE END MspInit 0 */

  __HAL_RCC_AFIO_CLK_ENABLE();
 8001cb4:	4b0e      	ldr	r3, [pc, #56]	; (8001cf0 <HAL_MspInit+0x3c>)
{
 8001cb6:	b082      	sub	sp, #8
  __HAL_RCC_AFIO_CLK_ENABLE();
 8001cb8:	699a      	ldr	r2, [r3, #24]
 8001cba:	f042 0201 	orr.w	r2, r2, #1
 8001cbe:	619a      	str	r2, [r3, #24]
 8001cc0:	699a      	ldr	r2, [r3, #24]
 8001cc2:	f002 0201 	and.w	r2, r2, #1
 8001cc6:	9200      	str	r2, [sp, #0]
 8001cc8:	9a00      	ldr	r2, [sp, #0]
  __HAL_RCC_PWR_CLK_ENABLE();
 8001cca:	69da      	ldr	r2, [r3, #28]
 8001ccc:	f042 5280 	orr.w	r2, r2, #268435456	; 0x10000000
 8001cd0:	61da      	str	r2, [r3, #28]
 8001cd2:	69db      	ldr	r3, [r3, #28]

  /* System interrupt init*/

  /** NOJTAG: JTAG-DP Disabled and SW-DP Enabled
  */
  __HAL_AFIO_REMAP_SWJ_NOJTAG();
 8001cd4:	4a07      	ldr	r2, [pc, #28]	; (8001cf4 <HAL_MspInit+0x40>)
  __HAL_RCC_PWR_CLK_ENABLE();
 8001cd6:	f003 5380 	and.w	r3, r3, #268435456	; 0x10000000
 8001cda:	9301      	str	r3, [sp, #4]
 8001cdc:	9b01      	ldr	r3, [sp, #4]
  __HAL_AFIO_REMAP_SWJ_NOJTAG();
 8001cde:	6853      	ldr	r3, [r2, #4]
 8001ce0:	f023 63e0 	bic.w	r3, r3, #117440512	; 0x7000000
 8001ce4:	f043 7300 	orr.w	r3, r3, #33554432	; 0x2000000
 8001ce8:	6053      	str	r3, [r2, #4]

  /* USER CODE BEGIN MspInit 1 */

  /* USER CODE END MspInit 1 */
}
 8001cea:	b002      	add	sp, #8
 8001cec:	4770      	bx	lr
 8001cee:	bf00      	nop
 8001cf0:	40021000 	.word	0x40021000
 8001cf4:	40010000 	.word	0x40010000

08001cf8 <HAL_CAN_MspInit>:
* This function configures the hardware resources used in this example
* @param hcan: CAN handle pointer
* @retval None
*/
void HAL_CAN_MspInit(CAN_HandleTypeDef* hcan)
{
 8001cf8:	b510      	push	{r4, lr}
 8001cfa:	4604      	mov	r4, r0
 8001cfc:	b086      	sub	sp, #24
  GPIO_InitTypeDef GPIO_InitStruct = {0};
 8001cfe:	2210      	movs	r2, #16
 8001d00:	2100      	movs	r1, #0
 8001d02:	a802      	add	r0, sp, #8
 8001d04:	f000 fff4 	bl	8002cf0 <memset>
  if(hcan->Instance==CAN1)
 8001d08:	6822      	ldr	r2, [r4, #0]
 8001d0a:	4b1d      	ldr	r3, [pc, #116]	; (8001d80 <HAL_CAN_MspInit+0x88>)
 8001d0c:	429a      	cmp	r2, r3
 8001d0e:	d135      	bne.n	8001d7c <HAL_CAN_MspInit+0x84>
  {
  /* USER CODE BEGIN CAN1_MspInit 0 */

  /* USER CODE END CAN1_MspInit 0 */
    /* Peripheral clock enable */
    __HAL_RCC_CAN1_CLK_ENABLE();
 8001d10:	f503 33d6 	add.w	r3, r3, #109568	; 0x1ac00
 8001d14:	69da      	ldr	r2, [r3, #28]
    PA12     ------> CAN_TX
    */
    GPIO_InitStruct.Pin = GPIO_PIN_11;
    GPIO_InitStruct.Mode = GPIO_MODE_INPUT;
    GPIO_InitStruct.Pull = GPIO_NOPULL;
    HAL_GPIO_Init(GPIOA, &GPIO_InitStruct);
 8001d16:	a902      	add	r1, sp, #8
    __HAL_RCC_CAN1_CLK_ENABLE();
 8001d18:	f042 7200 	orr.w	r2, r2, #33554432	; 0x2000000
 8001d1c:	61da      	str	r2, [r3, #28]
 8001d1e:	69da      	ldr	r2, [r3, #28]
    HAL_GPIO_Init(GPIOA, &GPIO_InitStruct);
 8001d20:	4818      	ldr	r0, [pc, #96]	; (8001d84 <HAL_CAN_MspInit+0x8c>)
    __HAL_RCC_CAN1_CLK_ENABLE();
 8001d22:	f002 7200 	and.w	r2, r2, #33554432	; 0x2000000
 8001d26:	9200      	str	r2, [sp, #0]
 8001d28:	9a00      	ldr	r2, [sp, #0]
    __HAL_RCC_GPIOA_CLK_ENABLE();
 8001d2a:	699a      	ldr	r2, [r3, #24]
 8001d2c:	f042 0204 	orr.w	r2, r2, #4
 8001d30:	619a      	str	r2, [r3, #24]
 8001d32:	699b      	ldr	r3, [r3, #24]
 8001d34:	f003 0304 	and.w	r3, r3, #4
 8001d38:	9301      	str	r3, [sp, #4]
 8001d3a:	9b01      	ldr	r3, [sp, #4]
    GPIO_InitStruct.Pin = GPIO_PIN_11;
 8001d3c:	f44f 6300 	mov.w	r3, #2048	; 0x800
 8001d40:	9302      	str	r3, [sp, #8]
    HAL_GPIO_Init(GPIOA, &GPIO_InitStruct);
 8001d42:	f7fe fd69 	bl	8000818 <HAL_GPIO_Init>

    GPIO_InitStruct.Pin = GPIO_PIN_12;
 8001d46:	f44f 5380 	mov.w	r3, #4096	; 0x1000
 8001d4a:	9302      	str	r3, [sp, #8]
    GPIO_InitStruct.Mode = GPIO_MODE_AF_PP;
 8001d4c:	2302      	movs	r3, #2
 8001d4e:	9303      	str	r3, [sp, #12]
    GPIO_InitStruct.Speed = GPIO_SPEED_FREQ_HIGH;
 8001d50:	2303      	movs	r3, #3
    HAL_GPIO_Init(GPIOA, &GPIO_InitStruct);
 8001d52:	a902      	add	r1, sp, #8
 8001d54:	480b      	ldr	r0, [pc, #44]	; (8001d84 <HAL_CAN_MspInit+0x8c>)
    GPIO_InitStruct.Speed = GPIO_SPEED_FREQ_HIGH;
 8001d56:	9305      	str	r3, [sp, #20]
    HAL_GPIO_Init(GPIOA, &GPIO_InitStruct);
 8001d58:	f7fe fd5e 	bl	8000818 <HAL_GPIO_Init>

    /* CAN1 interrupt Init */
    HAL_NVIC_SetPriority(USB_HP_CAN1_TX_IRQn, 0, 0);
 8001d5c:	2200      	movs	r2, #0
 8001d5e:	2013      	movs	r0, #19
 8001d60:	4611      	mov	r1, r2
 8001d62:	f7fe fd01 	bl	8000768 <HAL_NVIC_SetPriority>
    HAL_NVIC_EnableIRQ(USB_HP_CAN1_TX_IRQn);
 8001d66:	2013      	movs	r0, #19
 8001d68:	f7fe fd32 	bl	80007d0 <HAL_NVIC_EnableIRQ>
    HAL_NVIC_SetPriority(USB_LP_CAN1_RX0_IRQn, 0, 0);
 8001d6c:	2200      	movs	r2, #0
 8001d6e:	2014      	movs	r0, #20
 8001d70:	4611      	mov	r1, r2
 8001d72:	f7fe fcf9 	bl	8000768 <HAL_NVIC_SetPriority>
    HAL_NVIC_EnableIRQ(USB_LP_CAN1_RX0_IRQn);
 8001d76:	2014      	movs	r0, #20
 8001d78:	f7fe fd2a 	bl	80007d0 <HAL_NVIC_EnableIRQ>
  /* USER CODE BEGIN CAN1_MspInit 1 */

  /* USER CODE END CAN1_MspInit 1 */
  }

}
 8001d7c:	b006      	add	sp, #24
 8001d7e:	bd10      	pop	{r4, pc}
 8001d80:	40006400 	.word	0x40006400
 8001d84:	40010800 	.word	0x40010800

08001d88 <HAL_TIM_Base_MspInit>:
* This function configures the hardware resources used in this example
* @param htim_base: TIM_Base handle pointer
* @retval None
*/
void HAL_TIM_Base_MspInit(TIM_HandleTypeDef* htim_base)
{
 8001d88:	b507      	push	{r0, r1, r2, lr}
  if(htim_base->Instance==TIM1)
 8001d8a:	6803      	ldr	r3, [r0, #0]
 8001d8c:	4a16      	ldr	r2, [pc, #88]	; (8001de8 <HAL_TIM_Base_MspInit+0x60>)
 8001d8e:	4293      	cmp	r3, r2
 8001d90:	d114      	bne.n	8001dbc <HAL_TIM_Base_MspInit+0x34>
  {
  /* USER CODE BEGIN TIM1_MspInit 0 */

  /* USER CODE END TIM1_MspInit 0 */
    /* Peripheral clock enable */
    __HAL_RCC_TIM1_CLK_ENABLE();
 8001d92:	4b16      	ldr	r3, [pc, #88]	; (8001dec <HAL_TIM_Base_MspInit+0x64>)
    /* TIM1 interrupt Init */
    HAL_NVIC_SetPriority(TIM1_UP_IRQn, 0, 0);
 8001d94:	2019      	movs	r0, #25
    __HAL_RCC_TIM1_CLK_ENABLE();
 8001d96:	699a      	ldr	r2, [r3, #24]
 8001d98:	f442 6200 	orr.w	r2, r2, #2048	; 0x800
 8001d9c:	619a      	str	r2, [r3, #24]
    HAL_NVIC_SetPriority(TIM1_UP_IRQn, 0, 0);
 8001d9e:	2200      	movs	r2, #0
    __HAL_RCC_TIM1_CLK_ENABLE();
 8001da0:	699b      	ldr	r3, [r3, #24]
    HAL_NVIC_SetPriority(TIM1_UP_IRQn, 0, 0);
 8001da2:	4611      	mov	r1, r2
    __HAL_RCC_TIM1_CLK_ENABLE();
 8001da4:	f403 6300 	and.w	r3, r3, #2048	; 0x800
 8001da8:	9300      	str	r3, [sp, #0]
 8001daa:	9b00      	ldr	r3, [sp, #0]
    HAL_NVIC_SetPriority(TIM1_UP_IRQn, 0, 0);
 8001dac:	f7fe fcdc 	bl	8000768 <HAL_NVIC_SetPriority>
    HAL_NVIC_EnableIRQ(TIM1_UP_IRQn);
 8001db0:	2019      	movs	r0, #25
  /* USER CODE END TIM2_MspInit 0 */
    /* Peripheral clock enable */
    __HAL_RCC_TIM2_CLK_ENABLE();
    /* TIM2 interrupt Init */
    HAL_NVIC_SetPriority(TIM2_IRQn, 0, 0);
    HAL_NVIC_EnableIRQ(TIM2_IRQn);
 8001db2:	f7fe fd0d 	bl	80007d0 <HAL_NVIC_EnableIRQ>
  /* USER CODE BEGIN TIM2_MspInit 1 */

  /* USER CODE END TIM2_MspInit 1 */
  }

}
 8001db6:	b003      	add	sp, #12
 8001db8:	f85d fb04 	ldr.w	pc, [sp], #4
  else if(htim_base->Instance==TIM2)
 8001dbc:	f1b3 4f80 	cmp.w	r3, #1073741824	; 0x40000000
 8001dc0:	d1f9      	bne.n	8001db6 <HAL_TIM_Base_MspInit+0x2e>
    __HAL_RCC_TIM2_CLK_ENABLE();
 8001dc2:	f503 3304 	add.w	r3, r3, #135168	; 0x21000
 8001dc6:	69da      	ldr	r2, [r3, #28]
    HAL_NVIC_SetPriority(TIM2_IRQn, 0, 0);
 8001dc8:	201c      	movs	r0, #28
    __HAL_RCC_TIM2_CLK_ENABLE();
 8001dca:	f042 0201 	orr.w	r2, r2, #1
 8001dce:	61da      	str	r2, [r3, #28]
    HAL_NVIC_SetPriority(TIM2_IRQn, 0, 0);
 8001dd0:	2200      	movs	r2, #0
    __HAL_RCC_TIM2_CLK_ENABLE();
 8001dd2:	69db      	ldr	r3, [r3, #28]
    HAL_NVIC_SetPriority(TIM2_IRQn, 0, 0);
 8001dd4:	4611      	mov	r1, r2
    __HAL_RCC_TIM2_CLK_ENABLE();
 8001dd6:	f003 0301 	and.w	r3, r3, #1
 8001dda:	9301      	str	r3, [sp, #4]
 8001ddc:	9b01      	ldr	r3, [sp, #4]
    HAL_NVIC_SetPriority(TIM2_IRQn, 0, 0);
 8001dde:	f7fe fcc3 	bl	8000768 <HAL_NVIC_SetPriority>
    HAL_NVIC_EnableIRQ(TIM2_IRQn);
 8001de2:	201c      	movs	r0, #28
 8001de4:	e7e5      	b.n	8001db2 <HAL_TIM_Base_MspInit+0x2a>
 8001de6:	bf00      	nop
 8001de8:	40012c00 	.word	0x40012c00
 8001dec:	40021000 	.word	0x40021000

08001df0 <HAL_UART_MspInit>:
* This function configures the hardware resources used in this example
* @param huart: UART handle pointer
* @retval None
*/
void HAL_UART_MspInit(UART_HandleTypeDef* huart)
{
 8001df0:	b510      	push	{r4, lr}
 8001df2:	4604      	mov	r4, r0
 8001df4:	b086      	sub	sp, #24
  GPIO_InitTypeDef GPIO_InitStruct = {0};
 8001df6:	2210      	movs	r2, #16
 8001df8:	2100      	movs	r1, #0
 8001dfa:	a802      	add	r0, sp, #8
 8001dfc:	f000 ff78 	bl	8002cf0 <memset>
  if(huart->Instance==USART3)
 8001e00:	6822      	ldr	r2, [r4, #0]
 8001e02:	4b17      	ldr	r3, [pc, #92]	; (8001e60 <HAL_UART_MspInit+0x70>)
 8001e04:	429a      	cmp	r2, r3
 8001e06:	d128      	bne.n	8001e5a <HAL_UART_MspInit+0x6a>
  {
  /* USER CODE BEGIN USART3_MspInit 0 */

  /* USER CODE END USART3_MspInit 0 */
    /* Peripheral clock enable */
    __HAL_RCC_USART3_CLK_ENABLE();
 8001e08:	f503 33e4 	add.w	r3, r3, #116736	; 0x1c800
 8001e0c:	69da      	ldr	r2, [r3, #28]
    PB11     ------> USART3_RX
    */
    GPIO_InitStruct.Pin = GPIO_PIN_10;
    GPIO_InitStruct.Mode = GPIO_MODE_AF_PP;
    GPIO_InitStruct.Speed = GPIO_SPEED_FREQ_HIGH;
    HAL_GPIO_Init(GPIOB, &GPIO_InitStruct);
 8001e0e:	a902      	add	r1, sp, #8
    __HAL_RCC_USART3_CLK_ENABLE();
 8001e10:	f442 2280 	orr.w	r2, r2, #262144	; 0x40000
 8001e14:	61da      	str	r2, [r3, #28]
 8001e16:	69da      	ldr	r2, [r3, #28]
    HAL_GPIO_Init(GPIOB, &GPIO_InitStruct);
 8001e18:	4812      	ldr	r0, [pc, #72]	; (8001e64 <HAL_UART_MspInit+0x74>)
    __HAL_RCC_USART3_CLK_ENABLE();
 8001e1a:	f402 2280 	and.w	r2, r2, #262144	; 0x40000
 8001e1e:	9200      	str	r2, [sp, #0]
 8001e20:	9a00      	ldr	r2, [sp, #0]
    __HAL_RCC_GPIOB_CLK_ENABLE();
 8001e22:	699a      	ldr	r2, [r3, #24]
 8001e24:	f042 0208 	orr.w	r2, r2, #8
 8001e28:	619a      	str	r2, [r3, #24]
 8001e2a:	699b      	ldr	r3, [r3, #24]
 8001e2c:	f003 0308 	and.w	r3, r3, #8
 8001e30:	9301      	str	r3, [sp, #4]
 8001e32:	9b01      	ldr	r3, [sp, #4]
    GPIO_InitStruct.Pin = GPIO_PIN_10;
 8001e34:	f44f 6380 	mov.w	r3, #1024	; 0x400
 8001e38:	9302      	str	r3, [sp, #8]
    GPIO_InitStruct.Mode = GPIO_MODE_AF_PP;
 8001e3a:	2302      	movs	r3, #2
 8001e3c:	9303      	str	r3, [sp, #12]
    GPIO_InitStruct.Speed = GPIO_SPEED_FREQ_HIGH;
 8001e3e:	2303      	movs	r3, #3
 8001e40:	9305      	str	r3, [sp, #20]
    HAL_GPIO_Init(GPIOB, &GPIO_InitStruct);
 8001e42:	f7fe fce9 	bl	8000818 <HAL_GPIO_Init>

    GPIO_InitStruct.Pin = GPIO_PIN_11;
 8001e46:	f44f 6300 	mov.w	r3, #2048	; 0x800
 8001e4a:	9302      	str	r3, [sp, #8]
    GPIO_InitStruct.Mode = GPIO_MODE_INPUT;
 8001e4c:	2300      	movs	r3, #0
    GPIO_InitStruct.Pull = GPIO_NOPULL;
    HAL_GPIO_Init(GPIOB, &GPIO_InitStruct);
 8001e4e:	a902      	add	r1, sp, #8
 8001e50:	4804      	ldr	r0, [pc, #16]	; (8001e64 <HAL_UART_MspInit+0x74>)
    GPIO_InitStruct.Mode = GPIO_MODE_INPUT;
 8001e52:	9303      	str	r3, [sp, #12]
    GPIO_InitStruct.Pull = GPIO_NOPULL;
 8001e54:	9304      	str	r3, [sp, #16]
    HAL_GPIO_Init(GPIOB, &GPIO_InitStruct);
 8001e56:	f7fe fcdf 	bl	8000818 <HAL_GPIO_Init>
  /* USER CODE BEGIN USART3_MspInit 1 */

  /* USER CODE END USART3_MspInit 1 */
  }

}
 8001e5a:	b006      	add	sp, #24
 8001e5c:	bd10      	pop	{r4, pc}
 8001e5e:	bf00      	nop
 8001e60:	40004800 	.word	0x40004800
 8001e64:	40010c00 	.word	0x40010c00

08001e68 <NMI_Handler>:
 8001e68:	4770      	bx	lr

08001e6a <HardFault_Handler>:

/**
  * @brief This function handles Hard fault interrupt.
  */
void HardFault_Handler(void)
{
 8001e6a:	e7fe      	b.n	8001e6a <HardFault_Handler>

08001e6c <MemManage_Handler>:

/**
  * @brief This function handles Memory management fault.
  */
void MemManage_Handler(void)
{
 8001e6c:	e7fe      	b.n	8001e6c <MemManage_Handler>

08001e6e <BusFault_Handler>:

/**
  * @brief This function handles Prefetch fault, memory access fault.
  */
void BusFault_Handler(void)
{
 8001e6e:	e7fe      	b.n	8001e6e <BusFault_Handler>

08001e70 <UsageFault_Handler>:

/**
  * @brief This function handles Undefined instruction or illegal state.
  */
void UsageFault_Handler(void)
{
 8001e70:	e7fe      	b.n	8001e70 <UsageFault_Handler>

08001e72 <SVC_Handler>:
 8001e72:	4770      	bx	lr

08001e74 <DebugMon_Handler>:
 8001e74:	4770      	bx	lr

08001e76 <PendSV_Handler>:

/**
  * @brief This function handles Pendable request for system service.
  */
void PendSV_Handler(void)
{
 8001e76:	4770      	bx	lr

08001e78 <SysTick_Handler>:
void SysTick_Handler(void)
{
  /* USER CODE BEGIN SysTick_IRQn 0 */

  /* USER CODE END SysTick_IRQn 0 */
  HAL_IncTick();
 8001e78:	f7fe b99e 	b.w	80001b8 <HAL_IncTick>

08001e7c <USB_LP_CAN1_RX0_IRQHandler>:
void USB_LP_CAN1_RX0_IRQHandler(void)
{
  /* USER CODE BEGIN USB_LP_CAN1_RX0_IRQn 0 */

  /* USER CODE END USB_LP_CAN1_RX0_IRQn 0 */
  HAL_CAN_IRQHandler(&hcan);
 8001e7c:	4801      	ldr	r0, [pc, #4]	; (8001e84 <USB_LP_CAN1_RX0_IRQHandler+0x8>)
 8001e7e:	f7fe bb63 	b.w	8000548 <HAL_CAN_IRQHandler>
 8001e82:	bf00      	nop
 8001e84:	200002d4 	.word	0x200002d4

08001e88 <USB_HP_CAN1_TX_IRQHandler>:
 8001e88:	f7ff bff8 	b.w	8001e7c <USB_LP_CAN1_RX0_IRQHandler>

08001e8c <TIM1_UP_IRQHandler>:
void TIM1_UP_IRQHandler(void)
{
  /* USER CODE BEGIN TIM1_UP_IRQn 0 */

  /* USER CODE END TIM1_UP_IRQn 0 */
  HAL_TIM_IRQHandler(&htim1);
 8001e8c:	4801      	ldr	r0, [pc, #4]	; (8001e94 <TIM1_UP_IRQHandler+0x8>)
 8001e8e:	f7ff b863 	b.w	8000f58 <HAL_TIM_IRQHandler>
 8001e92:	bf00      	nop
 8001e94:	20000340 	.word	0x20000340

08001e98 <TIM2_IRQHandler>:
void TIM2_IRQHandler(void)
{
  /* USER CODE BEGIN TIM2_IRQn 0 */

  /* USER CODE END TIM2_IRQn 0 */
  HAL_TIM_IRQHandler(&htim2);
 8001e98:	4801      	ldr	r0, [pc, #4]	; (8001ea0 <TIM2_IRQHandler+0x8>)
 8001e9a:	f7ff b85d 	b.w	8000f58 <HAL_TIM_IRQHandler>
 8001e9e:	bf00      	nop
 8001ea0:	200002fc 	.word	0x200002fc

08001ea4 <_read>:
	_kill(status, -1);
	while (1) {}		/* Make sure we hang here */
}

__attribute__((weak)) int _read(int file, char *ptr, int len)
{
 8001ea4:	b570      	push	{r4, r5, r6, lr}
 8001ea6:	460e      	mov	r6, r1
 8001ea8:	4615      	mov	r5, r2
	int DataIdx;

	for (DataIdx = 0; DataIdx < len; DataIdx++)
 8001eaa:	460c      	mov	r4, r1
 8001eac:	1ba3      	subs	r3, r4, r6
 8001eae:	429d      	cmp	r5, r3
 8001eb0:	dc01      	bgt.n	8001eb6 <_read+0x12>
	{
		*ptr++ = __io_getchar();
	}

return len;
}
 8001eb2:	4628      	mov	r0, r5
 8001eb4:	bd70      	pop	{r4, r5, r6, pc}
		*ptr++ = __io_getchar();
 8001eb6:	f3af 8000 	nop.w
 8001eba:	f804 0b01 	strb.w	r0, [r4], #1
 8001ebe:	e7f5      	b.n	8001eac <_read+0x8>

08001ec0 <_sbrk>:
	}
	return len;
}

caddr_t _sbrk(int incr)
{
 8001ec0:	b508      	push	{r3, lr}
	extern char end asm("end");
	static char *heap_end;
	char *prev_heap_end;

	if (heap_end == 0)
 8001ec2:	4b0a      	ldr	r3, [pc, #40]	; (8001eec <_sbrk+0x2c>)
{
 8001ec4:	4602      	mov	r2, r0
	if (heap_end == 0)
 8001ec6:	6819      	ldr	r1, [r3, #0]
 8001ec8:	b909      	cbnz	r1, 8001ece <_sbrk+0xe>
		heap_end = &end;
 8001eca:	4909      	ldr	r1, [pc, #36]	; (8001ef0 <_sbrk+0x30>)
 8001ecc:	6019      	str	r1, [r3, #0]

	prev_heap_end = heap_end;
	if (heap_end + incr > stack_ptr)
 8001ece:	4669      	mov	r1, sp
	prev_heap_end = heap_end;
 8001ed0:	6818      	ldr	r0, [r3, #0]
	if (heap_end + incr > stack_ptr)
 8001ed2:	4402      	add	r2, r0
 8001ed4:	428a      	cmp	r2, r1
 8001ed6:	d906      	bls.n	8001ee6 <_sbrk+0x26>
	{
//		write(1, "Heap and stack collision\n", 25);
//		abort();
		errno = ENOMEM;
 8001ed8:	f000 fee0 	bl	8002c9c <__errno>
 8001edc:	230c      	movs	r3, #12
 8001ede:	6003      	str	r3, [r0, #0]
		return (caddr_t) -1;
 8001ee0:	f04f 30ff 	mov.w	r0, #4294967295	; 0xffffffff
 8001ee4:	bd08      	pop	{r3, pc}
	}

	heap_end += incr;
 8001ee6:	601a      	str	r2, [r3, #0]

	return (caddr_t) prev_heap_end;
}
 8001ee8:	bd08      	pop	{r3, pc}
 8001eea:	bf00      	nop
 8001eec:	20000124 	.word	0x20000124
 8001ef0:	20000384 	.word	0x20000384

08001ef4 <_close>:

int _close(int file)
{
	return -1;
}
 8001ef4:	f04f 30ff 	mov.w	r0, #4294967295	; 0xffffffff
 8001ef8:	4770      	bx	lr

08001efa <_fstat>:


int _fstat(int file, struct stat *st)
{
	st->st_mode = S_IFCHR;
 8001efa:	f44f 5300 	mov.w	r3, #8192	; 0x2000
	return 0;
}
 8001efe:	2000      	movs	r0, #0
	st->st_mode = S_IFCHR;
 8001f00:	604b      	str	r3, [r1, #4]
}
 8001f02:	4770      	bx	lr

08001f04 <_isatty>:

int _isatty(int file)
{
	return 1;
}
 8001f04:	2001      	movs	r0, #1
 8001f06:	4770      	bx	lr

08001f08 <_lseek>:

int _lseek(int file, int ptr, int dir)
{
	return 0;
}
 8001f08:	2000      	movs	r0, #0
 8001f0a:	4770      	bx	lr

08001f0c <SystemInit>:
  */
void SystemInit (void)
{
  /* Reset the RCC clock configuration to the default reset state(for debug purpose) */
  /* Set HSION bit */
  RCC->CR |= 0x00000001U;
 8001f0c:	4b0f      	ldr	r3, [pc, #60]	; (8001f4c <SystemInit+0x40>)
 8001f0e:	681a      	ldr	r2, [r3, #0]
 8001f10:	f042 0201 	orr.w	r2, r2, #1
 8001f14:	601a      	str	r2, [r3, #0]

  /* Reset SW, HPRE, PPRE1, PPRE2, ADCPRE and MCO bits */
#if !defined(STM32F105xC) && !defined(STM32F107xC)
  RCC->CFGR &= 0xF8FF0000U;
 8001f16:	6859      	ldr	r1, [r3, #4]
 8001f18:	4a0d      	ldr	r2, [pc, #52]	; (8001f50 <SystemInit+0x44>)
 8001f1a:	400a      	ands	r2, r1
 8001f1c:	605a      	str	r2, [r3, #4]
#else
  RCC->CFGR &= 0xF0FF0000U;
#endif /* STM32F105xC */   
  
  /* Reset HSEON, CSSON and PLLON bits */
  RCC->CR &= 0xFEF6FFFFU;
 8001f1e:	681a      	ldr	r2, [r3, #0]
 8001f20:	f022 7284 	bic.w	r2, r2, #17301504	; 0x1080000
 8001f24:	f422 3280 	bic.w	r2, r2, #65536	; 0x10000
 8001f28:	601a      	str	r2, [r3, #0]

  /* Reset HSEBYP bit */
  RCC->CR &= 0xFFFBFFFFU;
 8001f2a:	681a      	ldr	r2, [r3, #0]
 8001f2c:	f422 2280 	bic.w	r2, r2, #262144	; 0x40000
 8001f30:	601a      	str	r2, [r3, #0]

  /* Reset PLLSRC, PLLXTPRE, PLLMUL and USBPRE/OTGFSPRE bits */
  RCC->CFGR &= 0xFF80FFFFU;
 8001f32:	685a      	ldr	r2, [r3, #4]
 8001f34:	f422 02fe 	bic.w	r2, r2, #8323072	; 0x7f0000
 8001f38:	605a      	str	r2, [r3, #4]

  /* Reset CFGR2 register */
  RCC->CFGR2 = 0x00000000U;      
#else
  /* Disable all interrupts and clear pending bits  */
  RCC->CIR = 0x009F0000U;
 8001f3a:	f44f 021f 	mov.w	r2, #10420224	; 0x9f0000
 8001f3e:	609a      	str	r2, [r3, #8]
#endif 

#ifdef VECT_TAB_SRAM
  SCB->VTOR = SRAM_BASE | VECT_TAB_OFFSET; /* Vector Table Relocation in Internal SRAM. */
#else
  SCB->VTOR = FLASH_BASE | VECT_TAB_OFFSET; /* Vector Table Relocation in Internal FLASH. */
 8001f40:	f04f 6200 	mov.w	r2, #134217728	; 0x8000000
 8001f44:	4b03      	ldr	r3, [pc, #12]	; (8001f54 <SystemInit+0x48>)
 8001f46:	609a      	str	r2, [r3, #8]
 8001f48:	4770      	bx	lr
 8001f4a:	bf00      	nop
 8001f4c:	40021000 	.word	0x40021000
 8001f50:	f8ff0000 	.word	0xf8ff0000
 8001f54:	e000ed00 	.word	0xe000ed00

08001f58 <u8g2_send_buffer>:
  For most displays, this will make the content visible to the user.
  Some displays (like the SSD1606) require a u8x8_RefreshDisplay()
*/
static void u8g2_send_buffer(u8g2_t *u8g2) U8X8_NOINLINE;
static void u8g2_send_buffer(u8g2_t *u8g2)
{
 8001f58:	e92d 43f7 	stmdb	sp!, {r0, r1, r2, r4, r5, r6, r7, r8, r9, lr}
 8001f5c:	4605      	mov	r5, r0
  uint8_t dest_max;

  src_row = 0;
  src_max = u8g2->tile_buf_height;
  dest_row = u8g2->tile_curr_row;
  dest_max = u8g2_GetU8x8(u8g2)->display_info->tile_height;
 8001f5e:	2600      	movs	r6, #0
 8001f60:	6803      	ldr	r3, [r0, #0]
  src_max = u8g2->tile_buf_height;
 8001f62:	f890 9038 	ldrb.w	r9, [r0, #56]	; 0x38
  dest_row = u8g2->tile_curr_row;
 8001f66:	f890 7039 	ldrb.w	r7, [r0, #57]	; 0x39
  dest_max = u8g2_GetU8x8(u8g2)->display_info->tile_height;
 8001f6a:	f893 8011 	ldrb.w	r8, [r3, #17]
  w = u8g2_GetU8x8(u8g2)->display_info->tile_width;
 8001f6e:	682b      	ldr	r3, [r5, #0]
  offset = src_tile_row;
 8001f70:	b2b1      	uxth	r1, r6
  w = u8g2_GetU8x8(u8g2)->display_info->tile_width;
 8001f72:	7c1b      	ldrb	r3, [r3, #16]
 8001f74:	b2f4      	uxtb	r4, r6
  offset *= 8;
 8001f76:	00d8      	lsls	r0, r3, #3
 8001f78:	4341      	muls	r1, r0
  ptr += offset;
 8001f7a:	6b68      	ldr	r0, [r5, #52]	; 0x34
 8001f7c:	b289      	uxth	r1, r1
 8001f7e:	4401      	add	r1, r0
  u8x8_DrawTile(u8g2_GetU8x8(u8g2), 0, dest_tile_row, w, ptr);
 8001f80:	193a      	adds	r2, r7, r4
  do
  {
    u8g2_send_tile_row(u8g2, src_row, dest_row);
    src_row++;
    dest_row++;
  } while( src_row < src_max && dest_row < dest_max );
 8001f82:	3401      	adds	r4, #1
  u8x8_DrawTile(u8g2_GetU8x8(u8g2), 0, dest_tile_row, w, ptr);
 8001f84:	9100      	str	r1, [sp, #0]
 8001f86:	b2d2      	uxtb	r2, r2
 8001f88:	2100      	movs	r1, #0
 8001f8a:	4628      	mov	r0, r5
  } while( src_row < src_max && dest_row < dest_max );
 8001f8c:	b2e4      	uxtb	r4, r4
  u8x8_DrawTile(u8g2_GetU8x8(u8g2), 0, dest_tile_row, w, ptr);
 8001f8e:	f000 fdfc 	bl	8002b8a <u8x8_DrawTile>
  } while( src_row < src_max && dest_row < dest_max );
 8001f92:	45a1      	cmp	r9, r4
 8001f94:	d904      	bls.n	8001fa0 <u8g2_send_buffer+0x48>
 8001f96:	3601      	adds	r6, #1
 8001f98:	19bb      	adds	r3, r7, r6
 8001f9a:	b2db      	uxtb	r3, r3
 8001f9c:	4598      	cmp	r8, r3
 8001f9e:	d8e6      	bhi.n	8001f6e <u8g2_send_buffer+0x16>
}
 8001fa0:	b003      	add	sp, #12
 8001fa2:	e8bd 83f0 	ldmia.w	sp!, {r4, r5, r6, r7, r8, r9, pc}

08001fa6 <u8g2_ClearBuffer>:
  cnt = u8g2_GetU8x8(u8g2)->display_info->tile_width;
 8001fa6:	6803      	ldr	r3, [r0, #0]
  memset(u8g2->tile_buf_ptr, 0, cnt);
 8001fa8:	2100      	movs	r1, #0
  cnt = u8g2_GetU8x8(u8g2)->display_info->tile_width;
 8001faa:	7c1a      	ldrb	r2, [r3, #16]
  cnt *= u8g2->tile_buf_height;
 8001fac:	f890 3038 	ldrb.w	r3, [r0, #56]	; 0x38
  memset(u8g2->tile_buf_ptr, 0, cnt);
 8001fb0:	6b40      	ldr	r0, [r0, #52]	; 0x34
  cnt *= 8;
 8001fb2:	00db      	lsls	r3, r3, #3
  memset(u8g2->tile_buf_ptr, 0, cnt);
 8001fb4:	435a      	muls	r2, r3
 8001fb6:	f000 be9b 	b.w	8002cf0 <memset>

08001fba <u8g2_SetBufferCurrTileRow>:
  u8x8_RefreshDisplay( u8g2_GetU8x8(u8g2) );  
}

/*============================================*/
void u8g2_SetBufferCurrTileRow(u8g2_t *u8g2, uint8_t row)
{
 8001fba:	b510      	push	{r4, lr}
 8001fbc:	4604      	mov	r4, r0
  u8g2->tile_curr_row = row;
  u8g2->cb->update_dimension(u8g2);
 8001fbe:	6b03      	ldr	r3, [r0, #48]	; 0x30
  u8g2->tile_curr_row = row;
 8001fc0:	f880 1039 	strb.w	r1, [r0, #57]	; 0x39
  u8g2->cb->update_dimension(u8g2);
 8001fc4:	681b      	ldr	r3, [r3, #0]
 8001fc6:	4798      	blx	r3
  u8g2->cb->update_page_win(u8g2);
 8001fc8:	6b23      	ldr	r3, [r4, #48]	; 0x30
 8001fca:	4620      	mov	r0, r4
}
 8001fcc:	e8bd 4010 	ldmia.w	sp!, {r4, lr}
  u8g2->cb->update_page_win(u8g2);
 8001fd0:	685b      	ldr	r3, [r3, #4]
 8001fd2:	4718      	bx	r3

08001fd4 <u8g2_FirstPage>:

void u8g2_FirstPage(u8g2_t *u8g2)
{
 8001fd4:	b510      	push	{r4, lr}
  if ( u8g2->is_auto_page_clear )
 8001fd6:	f890 3083 	ldrb.w	r3, [r0, #131]	; 0x83
{
 8001fda:	4604      	mov	r4, r0
  if ( u8g2->is_auto_page_clear )
 8001fdc:	b10b      	cbz	r3, 8001fe2 <u8g2_FirstPage+0xe>
  {
    u8g2_ClearBuffer(u8g2);
 8001fde:	f7ff ffe2 	bl	8001fa6 <u8g2_ClearBuffer>
  }
  u8g2_SetBufferCurrTileRow(u8g2, 0);
 8001fe2:	4620      	mov	r0, r4
}
 8001fe4:	e8bd 4010 	ldmia.w	sp!, {r4, lr}
  u8g2_SetBufferCurrTileRow(u8g2, 0);
 8001fe8:	2100      	movs	r1, #0
 8001fea:	f7ff bfe6 	b.w	8001fba <u8g2_SetBufferCurrTileRow>

08001fee <u8g2_NextPage>:

uint8_t u8g2_NextPage(u8g2_t *u8g2)
{
 8001fee:	b538      	push	{r3, r4, r5, lr}
 8001ff0:	4604      	mov	r4, r0
  uint8_t row;
  u8g2_send_buffer(u8g2);
 8001ff2:	f7ff ffb1 	bl	8001f58 <u8g2_send_buffer>
  row = u8g2->tile_curr_row;
 8001ff6:	f894 5039 	ldrb.w	r5, [r4, #57]	; 0x39
  row += u8g2->tile_buf_height;
 8001ffa:	f894 1038 	ldrb.w	r1, [r4, #56]	; 0x38
  if ( row >= u8g2_GetU8x8(u8g2)->display_info->tile_height )
 8001ffe:	6823      	ldr	r3, [r4, #0]
  row += u8g2->tile_buf_height;
 8002000:	440d      	add	r5, r1
  if ( row >= u8g2_GetU8x8(u8g2)->display_info->tile_height )
 8002002:	7c5b      	ldrb	r3, [r3, #17]
  row += u8g2->tile_buf_height;
 8002004:	b2ed      	uxtb	r5, r5
  if ( row >= u8g2_GetU8x8(u8g2)->display_info->tile_height )
 8002006:	42ab      	cmp	r3, r5
 8002008:	d804      	bhi.n	8002014 <u8g2_NextPage+0x26>
  {
    u8x8_RefreshDisplay( u8g2_GetU8x8(u8g2) );
 800200a:	4620      	mov	r0, r4
 800200c:	f000 fdee 	bl	8002bec <u8x8_RefreshDisplay>
    return 0;
 8002010:	2000      	movs	r0, #0
 8002012:	bd38      	pop	{r3, r4, r5, pc}
  }
  if ( u8g2->is_auto_page_clear )
 8002014:	f894 3083 	ldrb.w	r3, [r4, #131]	; 0x83
 8002018:	b113      	cbz	r3, 8002020 <u8g2_NextPage+0x32>
  {
    u8g2_ClearBuffer(u8g2);
 800201a:	4620      	mov	r0, r4
 800201c:	f7ff ffc3 	bl	8001fa6 <u8g2_ClearBuffer>
  }
  u8g2_SetBufferCurrTileRow(u8g2, row);
 8002020:	4620      	mov	r0, r4
 8002022:	4629      	mov	r1, r5
 8002024:	f7ff ffc9 	bl	8001fba <u8g2_SetBufferCurrTileRow>
  return 1;
 8002028:	2001      	movs	r0, #1
}
 800202a:	bd38      	pop	{r3, r4, r5, pc}

0800202c <u8g2_m_16_8_1>:
  #ifdef U8G2_USE_DYNAMIC_ALLOC
  *page_cnt = 1;
  return 0;
  #else
  static uint8_t buf[128];
  *page_cnt = 1;
 800202c:	2301      	movs	r3, #1
 800202e:	7003      	strb	r3, [r0, #0]
  return buf;
  #endif
}
 8002030:	4800      	ldr	r0, [pc, #0]	; (8002034 <u8g2_m_16_8_1+0x8>)
 8002032:	4770      	bx	lr
 8002034:	20000128 	.word	0x20000128

08002038 <u8g2_Setup_st7565_ea_dogm128_1>:
  u8g2_SetupBuffer(u8g2, buf, tile_buf_height, u8g2_ll_hvline_vertical_top_lsb, rotation);
}
/* st7565 */
/* st7565 1 */
void u8g2_Setup_st7565_ea_dogm128_1(u8g2_t *u8g2, const u8g2_cb_t *rotation, u8x8_msg_cb byte_cb, u8x8_msg_cb gpio_and_delay_cb)
{
 8002038:	b530      	push	{r4, r5, lr}
 800203a:	b085      	sub	sp, #20
 800203c:	460d      	mov	r5, r1
  uint8_t tile_buf_height;
  uint8_t *buf;
  u8g2_SetupDisplay(u8g2, u8x8_d_st7565_ea_dogm128, u8x8_cad_001, byte_cb, gpio_and_delay_cb);
 800203e:	9300      	str	r3, [sp, #0]
 8002040:	4909      	ldr	r1, [pc, #36]	; (8002068 <u8g2_Setup_st7565_ea_dogm128_1+0x30>)
 8002042:	4613      	mov	r3, r2
 8002044:	4a09      	ldr	r2, [pc, #36]	; (800206c <u8g2_Setup_st7565_ea_dogm128_1+0x34>)
{
 8002046:	4604      	mov	r4, r0
  u8g2_SetupDisplay(u8g2, u8x8_d_st7565_ea_dogm128, u8x8_cad_001, byte_cb, gpio_and_delay_cb);
 8002048:	f000 fdf4 	bl	8002c34 <u8x8_Setup>
  buf = u8g2_m_16_8_1(&tile_buf_height);
 800204c:	f10d 000f 	add.w	r0, sp, #15
 8002050:	f7ff ffec 	bl	800202c <u8g2_m_16_8_1>
  u8g2_SetupBuffer(u8g2, buf, tile_buf_height, u8g2_ll_hvline_vertical_top_lsb, rotation);
 8002054:	f89d 200f 	ldrb.w	r2, [sp, #15]
 8002058:	4601      	mov	r1, r0
 800205a:	9500      	str	r5, [sp, #0]
 800205c:	4b04      	ldr	r3, [pc, #16]	; (8002070 <u8g2_Setup_st7565_ea_dogm128_1+0x38>)
 800205e:	4620      	mov	r0, r4
 8002060:	f000 fc06 	bl	8002870 <u8g2_SetupBuffer>
}
 8002064:	b005      	add	sp, #20
 8002066:	bd30      	pop	{r4, r5, pc}
 8002068:	08002ab9 	.word	0x08002ab9
 800206c:	080029af 	.word	0x080029af
 8002070:	08002695 	.word	0x08002695

08002074 <u8g2_font_get_word>:

static uint16_t u8g2_font_get_word(const uint8_t *font, uint8_t offset) U8G2_NOINLINE; 
static uint16_t u8g2_font_get_word(const uint8_t *font, uint8_t offset)
{
    uint16_t pos;
    font += offset;
 8002074:	1842      	adds	r2, r0, r1
    pos = u8x8_pgm_read( font );
 8002076:	5c43      	ldrb	r3, [r0, r1]
    font++;
    pos <<= 8;
    pos += u8x8_pgm_read( font);
 8002078:	7850      	ldrb	r0, [r2, #1]
 800207a:	eb00 2003 	add.w	r0, r0, r3, lsl #8
    return pos;
}
 800207e:	b280      	uxth	r0, r0
 8002080:	4770      	bx	lr

08002082 <u8g2_font_calc_vref_font>:
/* callback procedures to correct the y position */

u8g2_uint_t u8g2_font_calc_vref_font(U8X8_UNUSED u8g2_t *u8g2)
{
  return 0;
}
 8002082:	2000      	movs	r0, #0
 8002084:	4770      	bx	lr

08002086 <u8g2_read_font_info>:
{
 8002086:	b538      	push	{r3, r4, r5, lr}
  return u8x8_pgm_read( font );  
 8002088:	780b      	ldrb	r3, [r1, #0]
{
 800208a:	460d      	mov	r5, r1
  font_info->glyph_cnt = u8g2_font_get_byte(font, 0);
 800208c:	7003      	strb	r3, [r0, #0]
  return u8x8_pgm_read( font );  
 800208e:	784b      	ldrb	r3, [r1, #1]
{
 8002090:	4604      	mov	r4, r0
  font_info->bbx_mode = u8g2_font_get_byte(font, 1);
 8002092:	7043      	strb	r3, [r0, #1]
  return u8x8_pgm_read( font );  
 8002094:	788b      	ldrb	r3, [r1, #2]
  font_info->bits_per_0 = u8g2_font_get_byte(font, 2);
 8002096:	7083      	strb	r3, [r0, #2]
  return u8x8_pgm_read( font );  
 8002098:	78cb      	ldrb	r3, [r1, #3]
  font_info->bits_per_1 = u8g2_font_get_byte(font, 3);
 800209a:	70c3      	strb	r3, [r0, #3]
  return u8x8_pgm_read( font );  
 800209c:	790b      	ldrb	r3, [r1, #4]
  font_info->bits_per_char_width = u8g2_font_get_byte(font, 4);
 800209e:	7103      	strb	r3, [r0, #4]
  return u8x8_pgm_read( font );  
 80020a0:	794b      	ldrb	r3, [r1, #5]
  font_info->bits_per_char_height = u8g2_font_get_byte(font, 5);
 80020a2:	7143      	strb	r3, [r0, #5]
  return u8x8_pgm_read( font );  
 80020a4:	798b      	ldrb	r3, [r1, #6]
  font_info->bits_per_char_x = u8g2_font_get_byte(font, 6);
 80020a6:	7183      	strb	r3, [r0, #6]
  return u8x8_pgm_read( font );  
 80020a8:	79cb      	ldrb	r3, [r1, #7]
  font_info->bits_per_char_y = u8g2_font_get_byte(font, 7);
 80020aa:	71c3      	strb	r3, [r0, #7]
  return u8x8_pgm_read( font );  
 80020ac:	7a0b      	ldrb	r3, [r1, #8]
  font_info->bits_per_delta_x = u8g2_font_get_byte(font, 8);
 80020ae:	7203      	strb	r3, [r0, #8]
  font_info->max_char_width = u8g2_font_get_byte(font, 9);
 80020b0:	7a4b      	ldrb	r3, [r1, #9]
 80020b2:	7243      	strb	r3, [r0, #9]
  font_info->max_char_height = u8g2_font_get_byte(font, 10);
 80020b4:	7a8b      	ldrb	r3, [r1, #10]
 80020b6:	7283      	strb	r3, [r0, #10]
  font_info->x_offset = u8g2_font_get_byte(font, 11);
 80020b8:	7acb      	ldrb	r3, [r1, #11]
 80020ba:	72c3      	strb	r3, [r0, #11]
  font_info->y_offset = u8g2_font_get_byte(font, 12);
 80020bc:	7b0b      	ldrb	r3, [r1, #12]
 80020be:	7303      	strb	r3, [r0, #12]
  font_info->ascent_A = u8g2_font_get_byte(font, 13);
 80020c0:	7b4b      	ldrb	r3, [r1, #13]
 80020c2:	7343      	strb	r3, [r0, #13]
  font_info->descent_g = u8g2_font_get_byte(font, 14);
 80020c4:	7b8b      	ldrb	r3, [r1, #14]
 80020c6:	7383      	strb	r3, [r0, #14]
  font_info->ascent_para = u8g2_font_get_byte(font, 15);
 80020c8:	7bcb      	ldrb	r3, [r1, #15]
 80020ca:	73c3      	strb	r3, [r0, #15]
  font_info->descent_para = u8g2_font_get_byte(font, 16);
 80020cc:	7c0b      	ldrb	r3, [r1, #16]
  font_info->start_pos_upper_A = u8g2_font_get_word(font, 17);
 80020ce:	2111      	movs	r1, #17
  font_info->descent_para = u8g2_font_get_byte(font, 16);
 80020d0:	7403      	strb	r3, [r0, #16]
  font_info->start_pos_upper_A = u8g2_font_get_word(font, 17);
 80020d2:	4628      	mov	r0, r5
 80020d4:	f7ff ffce 	bl	8002074 <u8g2_font_get_word>
  font_info->start_pos_lower_a = u8g2_font_get_word(font, 19); 
 80020d8:	2113      	movs	r1, #19
  font_info->start_pos_upper_A = u8g2_font_get_word(font, 17);
 80020da:	8260      	strh	r0, [r4, #18]
  font_info->start_pos_lower_a = u8g2_font_get_word(font, 19); 
 80020dc:	4628      	mov	r0, r5
 80020de:	f7ff ffc9 	bl	8002074 <u8g2_font_get_word>
  font_info->start_pos_unicode = u8g2_font_get_word(font, 21); 
 80020e2:	2115      	movs	r1, #21
  font_info->start_pos_lower_a = u8g2_font_get_word(font, 19); 
 80020e4:	82a0      	strh	r0, [r4, #20]
  font_info->start_pos_unicode = u8g2_font_get_word(font, 21); 
 80020e6:	4628      	mov	r0, r5
 80020e8:	f7ff ffc4 	bl	8002074 <u8g2_font_get_word>
 80020ec:	82e0      	strh	r0, [r4, #22]
 80020ee:	bd38      	pop	{r3, r4, r5, pc}

080020f0 <u8g2_font_decode_get_unsigned_bits>:
{
 80020f0:	b570      	push	{r4, r5, r6, lr}
  uint8_t bit_pos = f->decode_bit_pos;
 80020f2:	7a84      	ldrb	r4, [r0, #10]
  val = u8x8_pgm_read( f->decode_ptr );  
 80020f4:	6806      	ldr	r6, [r0, #0]
  bit_pos_plus_cnt += cnt;
 80020f6:	1862      	adds	r2, r4, r1
  val >>= bit_pos;
 80020f8:	7833      	ldrb	r3, [r6, #0]
  bit_pos_plus_cnt += cnt;
 80020fa:	b2d2      	uxtb	r2, r2
  if ( bit_pos_plus_cnt >= 8 )
 80020fc:	2a07      	cmp	r2, #7
  val >>= bit_pos;
 80020fe:	fa43 f504 	asr.w	r5, r3, r4
  if ( bit_pos_plus_cnt >= 8 )
 8002102:	d806      	bhi.n	8002112 <u8g2_font_decode_get_unsigned_bits+0x22>
  val >>= bit_pos;
 8002104:	b2eb      	uxtb	r3, r5
  f->decode_bit_pos = bit_pos_plus_cnt;
 8002106:	7282      	strb	r2, [r0, #10]
  val &= (1U<<cnt)-1;
 8002108:	2001      	movs	r0, #1
 800210a:	4088      	lsls	r0, r1
 800210c:	3801      	subs	r0, #1
}
 800210e:	4018      	ands	r0, r3
 8002110:	bd70      	pop	{r4, r5, r6, pc}
    f->decode_ptr++;
 8002112:	1c73      	adds	r3, r6, #1
 8002114:	6003      	str	r3, [r0, #0]
    val |= u8x8_pgm_read( f->decode_ptr ) << (s);
 8002116:	7873      	ldrb	r3, [r6, #1]
    s -= bit_pos;
 8002118:	f1c4 0408 	rsb	r4, r4, #8
    val |= u8x8_pgm_read( f->decode_ptr ) << (s);
 800211c:	b2e4      	uxtb	r4, r4
 800211e:	40a3      	lsls	r3, r4
 8002120:	432b      	orrs	r3, r5
    bit_pos_plus_cnt -= 8;
 8002122:	3a08      	subs	r2, #8
    val |= u8x8_pgm_read( f->decode_ptr ) << (s);
 8002124:	b2db      	uxtb	r3, r3
    bit_pos_plus_cnt -= 8;
 8002126:	b2d2      	uxtb	r2, r2
 8002128:	e7ed      	b.n	8002106 <u8g2_font_decode_get_unsigned_bits+0x16>

0800212a <u8g2_font_setup_decode>:
{
 800212a:	b538      	push	{r3, r4, r5, lr}
  decode->decode_bit_pos = 0;
 800212c:	2300      	movs	r3, #0
  u8g2_font_decode_t *decode = &(u8g2->font_decode);
 800212e:	f100 0554 	add.w	r5, r0, #84	; 0x54
{
 8002132:	4604      	mov	r4, r0
  decode->decode_bit_pos = 0;
 8002134:	f880 305e 	strb.w	r3, [r0, #94]	; 0x5e
  decode->decode_ptr = glyph_data;
 8002138:	6541      	str	r1, [r0, #84]	; 0x54
  decode->glyph_width = u8g2_font_decode_get_unsigned_bits(decode, u8g2->font_info.bits_per_char_width);
 800213a:	f890 1068 	ldrb.w	r1, [r0, #104]	; 0x68
 800213e:	4628      	mov	r0, r5
 8002140:	f7ff ffd6 	bl	80020f0 <u8g2_font_decode_get_unsigned_bits>
  decode->glyph_height = u8g2_font_decode_get_unsigned_bits(decode,u8g2->font_info.bits_per_char_height);
 8002144:	f894 1069 	ldrb.w	r1, [r4, #105]	; 0x69
  decode->glyph_width = u8g2_font_decode_get_unsigned_bits(decode, u8g2->font_info.bits_per_char_width);
 8002148:	f884 005c 	strb.w	r0, [r4, #92]	; 0x5c
  decode->glyph_height = u8g2_font_decode_get_unsigned_bits(decode,u8g2->font_info.bits_per_char_height);
 800214c:	4628      	mov	r0, r5
 800214e:	f7ff ffcf 	bl	80020f0 <u8g2_font_decode_get_unsigned_bits>
  decode->fg_color = u8g2->draw_color;
 8002152:	f894 3082 	ldrb.w	r3, [r4, #130]	; 0x82
  decode->glyph_height = u8g2_font_decode_get_unsigned_bits(decode,u8g2->font_info.bits_per_char_height);
 8002156:	f884 005d 	strb.w	r0, [r4, #93]	; 0x5d
  decode->fg_color = u8g2->draw_color;
 800215a:	f884 3060 	strb.w	r3, [r4, #96]	; 0x60
  decode->bg_color = (decode->fg_color == 0 ? 1 : 0);
 800215e:	fab3 f383 	clz	r3, r3
 8002162:	095b      	lsrs	r3, r3, #5
 8002164:	f884 3061 	strb.w	r3, [r4, #97]	; 0x61
 8002168:	bd38      	pop	{r3, r4, r5, pc}

0800216a <u8g2_font_decode_get_signed_bits>:
{
 800216a:	b510      	push	{r4, lr}
  v = (int8_t)u8g2_font_decode_get_unsigned_bits(f, cnt);
 800216c:	f7ff ffc0 	bl	80020f0 <u8g2_font_decode_get_unsigned_bits>
  d <<= cnt;
 8002170:	2301      	movs	r3, #1
  cnt--;
 8002172:	1e4c      	subs	r4, r1, #1
  d <<= cnt;
 8002174:	b2e4      	uxtb	r4, r4
 8002176:	40a3      	lsls	r3, r4
  v -= d;
 8002178:	1ac0      	subs	r0, r0, r3
}
 800217a:	b240      	sxtb	r0, r0
 800217c:	bd10      	pop	{r4, pc}

0800217e <u8g2_add_vector_y>:
  switch(dir)
 800217e:	2b01      	cmp	r3, #1
 8002180:	d007      	beq.n	8002192 <u8g2_add_vector_y+0x14>
 8002182:	d303      	bcc.n	800218c <u8g2_add_vector_y+0xe>
 8002184:	2b02      	cmp	r3, #2
 8002186:	d006      	beq.n	8002196 <u8g2_add_vector_y+0x18>
      dy -= x;
 8002188:	1a40      	subs	r0, r0, r1
 800218a:	e000      	b.n	800218e <u8g2_add_vector_y+0x10>
      dy += y;
 800218c:	4410      	add	r0, r2
      dy -= x;
 800218e:	b2c0      	uxtb	r0, r0
}
 8002190:	4770      	bx	lr
      dy += x;
 8002192:	4408      	add	r0, r1
 8002194:	e7fb      	b.n	800218e <u8g2_add_vector_y+0x10>
      dy -= y;
 8002196:	1a80      	subs	r0, r0, r2
 8002198:	e7f9      	b.n	800218e <u8g2_add_vector_y+0x10>

0800219a <u8g2_add_vector_x>:
  switch(dir)
 800219a:	2b01      	cmp	r3, #1
 800219c:	d007      	beq.n	80021ae <u8g2_add_vector_x+0x14>
 800219e:	d303      	bcc.n	80021a8 <u8g2_add_vector_x+0xe>
 80021a0:	2b02      	cmp	r3, #2
 80021a2:	d006      	beq.n	80021b2 <u8g2_add_vector_x+0x18>
      dx += y;
 80021a4:	4410      	add	r0, r2
 80021a6:	e000      	b.n	80021aa <u8g2_add_vector_x+0x10>
      dx += x;
 80021a8:	4408      	add	r0, r1
      dx += y;
 80021aa:	b2c0      	uxtb	r0, r0
}
 80021ac:	4770      	bx	lr
      dx -= y;
 80021ae:	1a80      	subs	r0, r0, r2
 80021b0:	e7fb      	b.n	80021aa <u8g2_add_vector_x+0x10>
      dx -= x;
 80021b2:	1a40      	subs	r0, r0, r1
 80021b4:	e7f9      	b.n	80021aa <u8g2_add_vector_x+0x10>

080021b6 <u8g2_font_decode_len>:
{
 80021b6:	e92d 4ff0 	stmdb	sp!, {r4, r5, r6, r7, r8, r9, sl, fp, lr}
 80021ba:	4604      	mov	r4, r0
 80021bc:	460e      	mov	r6, r1
 80021be:	b087      	sub	sp, #28
  lx = decode->x;
 80021c0:	f890 805a 	ldrb.w	r8, [r0, #90]	; 0x5a
  ly = decode->y;
 80021c4:	f890 705b 	ldrb.w	r7, [r0, #91]	; 0x5b
{
 80021c8:	9205      	str	r2, [sp, #20]
    rem = decode->glyph_width;
 80021ca:	f894 505c 	ldrb.w	r5, [r4, #92]	; 0x5c
 80021ce:	4633      	mov	r3, r6
    rem -= lx;
 80021d0:	eba5 0508 	sub.w	r5, r5, r8
 80021d4:	b2ed      	uxtb	r5, r5
 80021d6:	42ae      	cmp	r6, r5
 80021d8:	bf28      	it	cs
 80021da:	462b      	movcs	r3, r5
    x = u8g2_add_vector_x(x, lx, ly, decode->dir);
 80021dc:	f894 9062 	ldrb.w	r9, [r4, #98]	; 0x62
 80021e0:	9302      	str	r3, [sp, #8]
    y = decode->target_y;
 80021e2:	f894 3059 	ldrb.w	r3, [r4, #89]	; 0x59
    x = u8g2_add_vector_x(x, lx, ly, decode->dir);
 80021e6:	fa4f fa88 	sxtb.w	sl, r8
 80021ea:	fa4f fb87 	sxtb.w	fp, r7
    y = decode->target_y;
 80021ee:	9304      	str	r3, [sp, #16]
    x = u8g2_add_vector_x(x, lx, ly, decode->dir);
 80021f0:	465a      	mov	r2, fp
 80021f2:	464b      	mov	r3, r9
 80021f4:	4651      	mov	r1, sl
 80021f6:	f894 0058 	ldrb.w	r0, [r4, #88]	; 0x58
 80021fa:	f7ff ffce 	bl	800219a <u8g2_add_vector_x>
    y = u8g2_add_vector_y(y, lx, ly, decode->dir);
 80021fe:	464b      	mov	r3, r9
    x = u8g2_add_vector_x(x, lx, ly, decode->dir);
 8002200:	9003      	str	r0, [sp, #12]
    y = u8g2_add_vector_y(y, lx, ly, decode->dir);
 8002202:	465a      	mov	r2, fp
 8002204:	4651      	mov	r1, sl
 8002206:	9804      	ldr	r0, [sp, #16]
 8002208:	f7ff ffb9 	bl	800217e <u8g2_add_vector_y>
    if ( is_foreground )
 800220c:	9b05      	ldr	r3, [sp, #20]
    y = u8g2_add_vector_y(y, lx, ly, decode->dir);
 800220e:	4602      	mov	r2, r0
    if ( is_foreground )
 8002210:	b19b      	cbz	r3, 800223a <u8g2_font_decode_len+0x84>
      u8g2->draw_color = decode->fg_color;			/* draw_color will be restored later */
 8002212:	f894 3060 	ldrb.w	r3, [r4, #96]	; 0x60
      u8g2->draw_color = decode->bg_color;			/* draw_color will be restored later */
 8002216:	f884 3082 	strb.w	r3, [r4, #130]	; 0x82
      u8g2_DrawHVLine(u8g2, 
 800221a:	f8cd 9000 	str.w	r9, [sp]
 800221e:	9b02      	ldr	r3, [sp, #8]
 8002220:	9903      	ldr	r1, [sp, #12]
 8002222:	4620      	mov	r0, r4
 8002224:	f000 f9a7 	bl	8002576 <u8g2_DrawHVLine>
    if ( cnt < rem )
 8002228:	42ae      	cmp	r6, r5
 800222a:	d30d      	bcc.n	8002248 <u8g2_font_decode_len+0x92>
    cnt -= rem;
 800222c:	1b76      	subs	r6, r6, r5
    ly++;
 800222e:	3701      	adds	r7, #1
    cnt -= rem;
 8002230:	b2f6      	uxtb	r6, r6
    ly++;
 8002232:	b2ff      	uxtb	r7, r7
    lx = 0;
 8002234:	f04f 0800 	mov.w	r8, #0
    rem = decode->glyph_width;
 8002238:	e7c7      	b.n	80021ca <u8g2_font_decode_len+0x14>
    else if ( decode->is_transparent == 0 )    
 800223a:	f894 305f 	ldrb.w	r3, [r4, #95]	; 0x5f
 800223e:	2b00      	cmp	r3, #0
 8002240:	d1f2      	bne.n	8002228 <u8g2_font_decode_len+0x72>
      u8g2->draw_color = decode->bg_color;			/* draw_color will be restored later */
 8002242:	f894 3061 	ldrb.w	r3, [r4, #97]	; 0x61
 8002246:	e7e6      	b.n	8002216 <u8g2_font_decode_len+0x60>
  lx += cnt;
 8002248:	4446      	add	r6, r8
  decode->x = lx;
 800224a:	f884 605a 	strb.w	r6, [r4, #90]	; 0x5a
  decode->y = ly;
 800224e:	f884 b05b 	strb.w	fp, [r4, #91]	; 0x5b
}
 8002252:	b007      	add	sp, #28
 8002254:	e8bd 8ff0 	ldmia.w	sp!, {r4, r5, r6, r7, r8, r9, sl, fp, pc}

08002258 <u8g2_font_decode_glyph>:
{
 8002258:	e92d 4ff0 	stmdb	sp!, {r4, r5, r6, r7, r8, r9, sl, fp, lr}
 800225c:	4604      	mov	r4, r0
 800225e:	b085      	sub	sp, #20
  u8g2_font_decode_t *decode = &(u8g2->font_decode);
 8002260:	f100 0954 	add.w	r9, r0, #84	; 0x54
  u8g2_font_setup_decode(u8g2, glyph_data);
 8002264:	f7ff ff61 	bl	800212a <u8g2_font_setup_decode>
  h = u8g2->font_decode.glyph_height;
 8002268:	f994 305d 	ldrsb.w	r3, [r4, #93]	; 0x5d
  x = u8g2_font_decode_get_signed_bits(decode, u8g2->font_info.bits_per_char_x);
 800226c:	f894 106a 	ldrb.w	r1, [r4, #106]	; 0x6a
 8002270:	4648      	mov	r0, r9
  h = u8g2->font_decode.glyph_height;
 8002272:	9302      	str	r3, [sp, #8]
  x = u8g2_font_decode_get_signed_bits(decode, u8g2->font_info.bits_per_char_x);
 8002274:	f7ff ff79 	bl	800216a <u8g2_font_decode_get_signed_bits>
  y = u8g2_font_decode_get_signed_bits(decode, u8g2->font_info.bits_per_char_y);
 8002278:	f894 106b 	ldrb.w	r1, [r4, #107]	; 0x6b
  x = u8g2_font_decode_get_signed_bits(decode, u8g2->font_info.bits_per_char_x);
 800227c:	4683      	mov	fp, r0
  y = u8g2_font_decode_get_signed_bits(decode, u8g2->font_info.bits_per_char_y);
 800227e:	4648      	mov	r0, r9
 8002280:	f7ff ff73 	bl	800216a <u8g2_font_decode_get_signed_bits>
  d = u8g2_font_decode_get_signed_bits(decode, u8g2->font_info.bits_per_delta_x);
 8002284:	f894 106c 	ldrb.w	r1, [r4, #108]	; 0x6c
  y = u8g2_font_decode_get_signed_bits(decode, u8g2->font_info.bits_per_char_y);
 8002288:	4680      	mov	r8, r0
  d = u8g2_font_decode_get_signed_bits(decode, u8g2->font_info.bits_per_delta_x);
 800228a:	4648      	mov	r0, r9
 800228c:	f7ff ff6d 	bl	800216a <u8g2_font_decode_get_signed_bits>
  if ( decode->glyph_width > 0 )
 8002290:	f994 605c 	ldrsb.w	r6, [r4, #92]	; 0x5c
  d = u8g2_font_decode_get_signed_bits(decode, u8g2->font_info.bits_per_delta_x);
 8002294:	9003      	str	r0, [sp, #12]
  if ( decode->glyph_width > 0 )
 8002296:	2e00      	cmp	r6, #0
 8002298:	dd57      	ble.n	800234a <u8g2_font_decode_glyph+0xf2>
    decode->target_x = u8g2_add_vector_x(decode->target_x, x, -(h+y), decode->dir);
 800229a:	f89d 5008 	ldrb.w	r5, [sp, #8]
 800229e:	f894 a062 	ldrb.w	sl, [r4, #98]	; 0x62
 80022a2:	44a8      	add	r8, r5
 80022a4:	f1c8 0800 	rsb	r8, r8, #0
 80022a8:	fa4f f888 	sxtb.w	r8, r8
 80022ac:	4653      	mov	r3, sl
 80022ae:	4642      	mov	r2, r8
 80022b0:	4659      	mov	r1, fp
 80022b2:	f894 0058 	ldrb.w	r0, [r4, #88]	; 0x58
 80022b6:	f7ff ff70 	bl	800219a <u8g2_add_vector_x>
    decode->target_y = u8g2_add_vector_y(decode->target_y, x, -(h+y), decode->dir);
 80022ba:	4653      	mov	r3, sl
    decode->target_x = u8g2_add_vector_x(decode->target_x, x, -(h+y), decode->dir);
 80022bc:	f884 0058 	strb.w	r0, [r4, #88]	; 0x58
 80022c0:	4607      	mov	r7, r0
    decode->target_y = u8g2_add_vector_y(decode->target_y, x, -(h+y), decode->dir);
 80022c2:	4642      	mov	r2, r8
 80022c4:	f894 0059 	ldrb.w	r0, [r4, #89]	; 0x59
 80022c8:	4659      	mov	r1, fp
 80022ca:	f7ff ff58 	bl	800217e <u8g2_add_vector_y>
 80022ce:	f884 0059 	strb.w	r0, [r4, #89]	; 0x59
      switch(decode->dir)
 80022d2:	f1ba 0f03 	cmp.w	sl, #3
 80022d6:	d85a      	bhi.n	800238e <u8g2_font_decode_glyph+0x136>
 80022d8:	e8df f00a 	tbb	[pc, sl]
 80022dc:	50443b02 	.word	0x50443b02
	    x1 += decode->glyph_width;
 80022e0:	19bb      	adds	r3, r7, r6
	    y1 += h;
 80022e2:	4405      	add	r5, r0
	    x1 += decode->glyph_width;
 80022e4:	b2db      	uxtb	r3, r3
	    y1 += h;
 80022e6:	b2e9      	uxtb	r1, r5
      if ( u8g2_IsIntersection(u8g2, x0, y0, x1, y1) == 0 ) 
 80022e8:	9100      	str	r1, [sp, #0]
 80022ea:	4602      	mov	r2, r0
 80022ec:	4639      	mov	r1, r7
 80022ee:	4620      	mov	r0, r4
 80022f0:	f000 f9b8 	bl	8002664 <u8g2_IsIntersection>
 80022f4:	b348      	cbz	r0, 800234a <u8g2_font_decode_glyph+0xf2>
    decode->x = 0;
 80022f6:	2300      	movs	r3, #0
 80022f8:	f884 305a 	strb.w	r3, [r4, #90]	; 0x5a
    decode->y = 0;
 80022fc:	f884 305b 	strb.w	r3, [r4, #91]	; 0x5b
      a = u8g2_font_decode_get_unsigned_bits(decode, u8g2->font_info.bits_per_0);
 8002300:	f894 1066 	ldrb.w	r1, [r4, #102]	; 0x66
 8002304:	4648      	mov	r0, r9
 8002306:	f7ff fef3 	bl	80020f0 <u8g2_font_decode_get_unsigned_bits>
      b = u8g2_font_decode_get_unsigned_bits(decode, u8g2->font_info.bits_per_1);
 800230a:	f894 1067 	ldrb.w	r1, [r4, #103]	; 0x67
      a = u8g2_font_decode_get_unsigned_bits(decode, u8g2->font_info.bits_per_0);
 800230e:	4606      	mov	r6, r0
      b = u8g2_font_decode_get_unsigned_bits(decode, u8g2->font_info.bits_per_1);
 8002310:	4648      	mov	r0, r9
 8002312:	f7ff feed 	bl	80020f0 <u8g2_font_decode_get_unsigned_bits>
 8002316:	4605      	mov	r5, r0
	u8g2_font_decode_len(u8g2, a, 0);
 8002318:	2200      	movs	r2, #0
 800231a:	4631      	mov	r1, r6
 800231c:	4620      	mov	r0, r4
 800231e:	f7ff ff4a 	bl	80021b6 <u8g2_font_decode_len>
	u8g2_font_decode_len(u8g2, b, 1);
 8002322:	4629      	mov	r1, r5
 8002324:	4620      	mov	r0, r4
 8002326:	2201      	movs	r2, #1
 8002328:	f7ff ff45 	bl	80021b6 <u8g2_font_decode_len>
      } while( u8g2_font_decode_get_unsigned_bits(decode, 1) != 0 );
 800232c:	2101      	movs	r1, #1
 800232e:	4648      	mov	r0, r9
 8002330:	f7ff fede 	bl	80020f0 <u8g2_font_decode_get_unsigned_bits>
 8002334:	2800      	cmp	r0, #0
 8002336:	d1ef      	bne.n	8002318 <u8g2_font_decode_glyph+0xc0>
      if ( decode->y >= h )
 8002338:	f994 305b 	ldrsb.w	r3, [r4, #91]	; 0x5b
 800233c:	9a02      	ldr	r2, [sp, #8]
 800233e:	4293      	cmp	r3, r2
 8002340:	dbde      	blt.n	8002300 <u8g2_font_decode_glyph+0xa8>
    u8g2->draw_color = decode->fg_color;
 8002342:	f894 3060 	ldrb.w	r3, [r4, #96]	; 0x60
 8002346:	f884 3082 	strb.w	r3, [r4, #130]	; 0x82
}
 800234a:	9803      	ldr	r0, [sp, #12]
 800234c:	b005      	add	sp, #20
 800234e:	e8bd 8ff0 	ldmia.w	sp!, {r4, r5, r6, r7, r8, r9, sl, fp, pc}
	    x0++;	/* shift down, because of assymetric boundaries for the interseciton test */
 8002352:	f1c5 0501 	rsb	r5, r5, #1
 8002356:	197a      	adds	r2, r7, r5
	    y1 += decode->glyph_width;
 8002358:	4406      	add	r6, r0
	    x1++;
 800235a:	3701      	adds	r7, #1
 800235c:	b2fb      	uxtb	r3, r7
	    y1 += decode->glyph_width;
 800235e:	b2f1      	uxtb	r1, r6
	    x0++;	/* shift down, because of assymetric boundaries for the interseciton test */
 8002360:	b2d7      	uxtb	r7, r2
	    break;	  
 8002362:	e7c1      	b.n	80022e8 <u8g2_font_decode_glyph+0x90>
	    x0++;	/* shift down, because of assymetric boundaries for the interseciton test */
 8002364:	f1c6 0601 	rsb	r6, r6, #1
	    y0++;	/* shift down, because of assymetric boundaries for the interseciton test */
 8002368:	f1c5 0501 	rsb	r5, r5, #1
	    y1++;
 800236c:	1c41      	adds	r1, r0, #1
	    x0++;	/* shift down, because of assymetric boundaries for the interseciton test */
 800236e:	19ba      	adds	r2, r7, r6
	    y0++;	/* shift down, because of assymetric boundaries for the interseciton test */
 8002370:	4405      	add	r5, r0
	    x1++;
 8002372:	3701      	adds	r7, #1
 8002374:	b2fb      	uxtb	r3, r7
	    y1++;
 8002376:	b2c9      	uxtb	r1, r1
	    y0++;	/* shift down, because of assymetric boundaries for the interseciton test */
 8002378:	b2e8      	uxtb	r0, r5
 800237a:	e7f1      	b.n	8002360 <u8g2_font_decode_glyph+0x108>
	    y0++;	/* shift down, because of assymetric boundaries for the interseciton test */
 800237c:	f1c6 0601 	rsb	r6, r6, #1
	    y1++;
 8002380:	1c41      	adds	r1, r0, #1
	    x1 += h;
 8002382:	19eb      	adds	r3, r5, r7
	    y0++;	/* shift down, because of assymetric boundaries for the interseciton test */
 8002384:	4406      	add	r6, r0
	    x1 += h;
 8002386:	b2db      	uxtb	r3, r3
	    y1++;
 8002388:	b2c9      	uxtb	r1, r1
	    y0++;	/* shift down, because of assymetric boundaries for the interseciton test */
 800238a:	b2f0      	uxtb	r0, r6
	    break;	  
 800238c:	e7ac      	b.n	80022e8 <u8g2_font_decode_glyph+0x90>
      y1 = y0;
 800238e:	4601      	mov	r1, r0
      x1 = x0;
 8002390:	463b      	mov	r3, r7
 8002392:	e7a9      	b.n	80022e8 <u8g2_font_decode_glyph+0x90>

08002394 <u8g2_font_get_glyph_data>:
  const uint8_t *font = u8g2->font;
 8002394:	6cc3      	ldr	r3, [r0, #76]	; 0x4c
  if ( encoding <= 255 )
 8002396:	29ff      	cmp	r1, #255	; 0xff
{
 8002398:	b570      	push	{r4, r5, r6, lr}
  font += U8G2_FONT_DATA_STRUCT_SIZE;
 800239a:	f103 0317 	add.w	r3, r3, #23
{
 800239e:	460d      	mov	r5, r1
  if ( encoding <= 255 )
 80023a0:	d812      	bhi.n	80023c8 <u8g2_font_get_glyph_data+0x34>
    if ( encoding >= 'a' )
 80023a2:	2960      	cmp	r1, #96	; 0x60
 80023a4:	d909      	bls.n	80023ba <u8g2_font_get_glyph_data+0x26>
      font += u8g2->font_info.start_pos_lower_a;
 80023a6:	f8b0 2078 	ldrh.w	r2, [r0, #120]	; 0x78
      font += u8g2->font_info.start_pos_upper_A;
 80023aa:	4413      	add	r3, r2
      if ( u8x8_pgm_read( font + 1 ) == 0 )
 80023ac:	7858      	ldrb	r0, [r3, #1]
 80023ae:	b348      	cbz	r0, 8002404 <u8g2_font_get_glyph_data+0x70>
      if ( u8x8_pgm_read( font ) == encoding )
 80023b0:	781a      	ldrb	r2, [r3, #0]
 80023b2:	42aa      	cmp	r2, r5
 80023b4:	d106      	bne.n	80023c4 <u8g2_font_get_glyph_data+0x30>
	return font+2;	/* skip encoding and glyph size */
 80023b6:	1c98      	adds	r0, r3, #2
 80023b8:	bd70      	pop	{r4, r5, r6, pc}
    else if ( encoding >= 'A' )
 80023ba:	2940      	cmp	r1, #64	; 0x40
 80023bc:	d9f6      	bls.n	80023ac <u8g2_font_get_glyph_data+0x18>
      font += u8g2->font_info.start_pos_upper_A;
 80023be:	f8b0 2076 	ldrh.w	r2, [r0, #118]	; 0x76
 80023c2:	e7f2      	b.n	80023aa <u8g2_font_get_glyph_data+0x16>
      font += u8x8_pgm_read( font + 1 );
 80023c4:	4403      	add	r3, r0
      if ( u8x8_pgm_read( font + 1 ) == 0 )
 80023c6:	e7f1      	b.n	80023ac <u8g2_font_get_glyph_data+0x18>
    font += u8g2->font_info.start_pos_unicode;
 80023c8:	f8b0 407a 	ldrh.w	r4, [r0, #122]	; 0x7a
 80023cc:	441c      	add	r4, r3
    unicode_lookup_table = font; 
 80023ce:	4626      	mov	r6, r4
      font += u8g2_font_get_word(unicode_lookup_table, 0);
 80023d0:	2100      	movs	r1, #0
 80023d2:	4630      	mov	r0, r6
 80023d4:	f7ff fe4e 	bl	8002074 <u8g2_font_get_word>
      e = u8g2_font_get_word(unicode_lookup_table, 2);
 80023d8:	2102      	movs	r1, #2
      font += u8g2_font_get_word(unicode_lookup_table, 0);
 80023da:	4404      	add	r4, r0
      e = u8g2_font_get_word(unicode_lookup_table, 2);
 80023dc:	4630      	mov	r0, r6
 80023de:	f7ff fe49 	bl	8002074 <u8g2_font_get_word>
    } while( e < encoding );
 80023e2:	4285      	cmp	r5, r0
      unicode_lookup_table+=4;
 80023e4:	f106 0604 	add.w	r6, r6, #4
    } while( e < encoding );
 80023e8:	d8f2      	bhi.n	80023d0 <u8g2_font_get_glyph_data+0x3c>
      e = u8x8_pgm_read( font );
 80023ea:	7823      	ldrb	r3, [r4, #0]
      e |= u8x8_pgm_read( font + 1 );
 80023ec:	7860      	ldrb	r0, [r4, #1]
      if ( e == 0 )
 80023ee:	ea50 2303 	orrs.w	r3, r0, r3, lsl #8
 80023f2:	d006      	beq.n	8002402 <u8g2_font_get_glyph_data+0x6e>
      if ( e == encoding )
 80023f4:	429d      	cmp	r5, r3
 80023f6:	d101      	bne.n	80023fc <u8g2_font_get_glyph_data+0x68>
	return font+3;	/* skip encoding and glyph size */
 80023f8:	1ce0      	adds	r0, r4, #3
 80023fa:	bd70      	pop	{r4, r5, r6, pc}
      font += u8x8_pgm_read( font + 2 );
 80023fc:	78a3      	ldrb	r3, [r4, #2]
 80023fe:	441c      	add	r4, r3
      e = u8x8_pgm_read( font );
 8002400:	e7f3      	b.n	80023ea <u8g2_font_get_glyph_data+0x56>
  return NULL;
 8002402:	4618      	mov	r0, r3
}
 8002404:	bd70      	pop	{r4, r5, r6, pc}

08002406 <u8g2_DrawGlyph>:
{
 8002406:	b5f8      	push	{r3, r4, r5, r6, r7, lr}
 8002408:	461f      	mov	r7, r3
  switch(u8g2->font_decode.dir)
 800240a:	f890 3062 	ldrb.w	r3, [r0, #98]	; 0x62
{
 800240e:	4604      	mov	r4, r0
 8002410:	460e      	mov	r6, r1
 8002412:	4615      	mov	r5, r2
  switch(u8g2->font_decode.dir)
 8002414:	2b03      	cmp	r3, #3
 8002416:	d807      	bhi.n	8002428 <u8g2_DrawGlyph+0x22>
 8002418:	e8df f003 	tbb	[pc, r3]
 800241c:	1e1a1502 	.word	0x1e1a1502
      y += u8g2->font_calc_vref(u8g2);
 8002420:	6d03      	ldr	r3, [r0, #80]	; 0x50
 8002422:	4798      	blx	r3
 8002424:	4405      	add	r5, r0
      y -= u8g2->font_calc_vref(u8g2);
 8002426:	b2ed      	uxtb	r5, r5
  u8g2->font_decode.target_x = x;
 8002428:	f884 6058 	strb.w	r6, [r4, #88]	; 0x58
  u8g2->font_decode.target_y = y;
 800242c:	f884 5059 	strb.w	r5, [r4, #89]	; 0x59
  const uint8_t *glyph_data = u8g2_font_get_glyph_data(u8g2, encoding);
 8002430:	4639      	mov	r1, r7
 8002432:	4620      	mov	r0, r4
 8002434:	f7ff ffae 	bl	8002394 <u8g2_font_get_glyph_data>
  if ( glyph_data != NULL )
 8002438:	b120      	cbz	r0, 8002444 <u8g2_DrawGlyph+0x3e>
    dx = u8g2_font_decode_glyph(u8g2, glyph_data);
 800243a:	4601      	mov	r1, r0
 800243c:	4620      	mov	r0, r4
 800243e:	f7ff ff0b 	bl	8002258 <u8g2_font_decode_glyph>
 8002442:	b2c0      	uxtb	r0, r0
}
 8002444:	bdf8      	pop	{r3, r4, r5, r6, r7, pc}
      x -= u8g2->font_calc_vref(u8g2);
 8002446:	6d03      	ldr	r3, [r0, #80]	; 0x50
 8002448:	4798      	blx	r3
 800244a:	1a36      	subs	r6, r6, r0
      x += u8g2->font_calc_vref(u8g2);
 800244c:	b2f6      	uxtb	r6, r6
      break;
 800244e:	e7eb      	b.n	8002428 <u8g2_DrawGlyph+0x22>
      y -= u8g2->font_calc_vref(u8g2);
 8002450:	6d03      	ldr	r3, [r0, #80]	; 0x50
 8002452:	4798      	blx	r3
 8002454:	1a2d      	subs	r5, r5, r0
 8002456:	e7e6      	b.n	8002426 <u8g2_DrawGlyph+0x20>
      x += u8g2->font_calc_vref(u8g2);
 8002458:	6d03      	ldr	r3, [r0, #80]	; 0x50
 800245a:	4798      	blx	r3
 800245c:	4406      	add	r6, r0
 800245e:	e7f5      	b.n	800244c <u8g2_DrawGlyph+0x46>

08002460 <u8g2_draw_string>:
{
 8002460:	e92d 47f0 	stmdb	sp!, {r4, r5, r6, r7, r8, r9, sl, lr}
 8002464:	461e      	mov	r6, r3
 8002466:	4607      	mov	r7, r0
 8002468:	460c      	mov	r4, r1
 800246a:	4615      	mov	r5, r2
  sum = 0;
 800246c:	f04f 0a00 	mov.w	sl, #0
  u8x8_utf8_init(u8g2_GetU8x8(u8g2));
 8002470:	f000 fa26 	bl	80028c0 <u8x8_utf8_init>
    if ( e == 0x0ffff )
 8002474:	f64f 78ff 	movw	r8, #65535	; 0xffff
    if ( e != 0x0fffe )
 8002478:	f64f 79fe 	movw	r9, #65534	; 0xfffe
 800247c:	3e01      	subs	r6, #1
    e = u8g2->u8x8.next_cb(u8g2_GetU8x8(u8g2), (uint8_t)*str);
 800247e:	687b      	ldr	r3, [r7, #4]
 8002480:	f816 1f01 	ldrb.w	r1, [r6, #1]!
 8002484:	4638      	mov	r0, r7
 8002486:	4798      	blx	r3
    if ( e == 0x0ffff )
 8002488:	4540      	cmp	r0, r8
    e = u8g2->u8x8.next_cb(u8g2_GetU8x8(u8g2), (uint8_t)*str);
 800248a:	4603      	mov	r3, r0
    if ( e == 0x0ffff )
 800248c:	d01b      	beq.n	80024c6 <u8g2_draw_string+0x66>
    if ( e != 0x0fffe )
 800248e:	4548      	cmp	r0, r9
 8002490:	d0f5      	beq.n	800247e <u8g2_draw_string+0x1e>
      delta = u8g2_DrawGlyph(u8g2, x, y, e);
 8002492:	462a      	mov	r2, r5
 8002494:	4621      	mov	r1, r4
 8002496:	4638      	mov	r0, r7
 8002498:	f7ff ffb5 	bl	8002406 <u8g2_DrawGlyph>
      switch(u8g2->font_decode.dir)
 800249c:	f897 3062 	ldrb.w	r3, [r7, #98]	; 0x62
 80024a0:	2b03      	cmp	r3, #3
 80024a2:	d805      	bhi.n	80024b0 <u8g2_draw_string+0x50>
 80024a4:	e8df f003 	tbb	[pc, r3]
 80024a8:	0d0b0802 	.word	0x0d0b0802
	  x += delta;
 80024ac:	4404      	add	r4, r0
	  x -= delta;
 80024ae:	b2e4      	uxtb	r4, r4
      sum += delta;    
 80024b0:	4450      	add	r0, sl
 80024b2:	fa5f fa80 	uxtb.w	sl, r0
 80024b6:	e7e2      	b.n	800247e <u8g2_draw_string+0x1e>
	  y += delta;
 80024b8:	4405      	add	r5, r0
	  y -= delta;
 80024ba:	b2ed      	uxtb	r5, r5
	  break;
 80024bc:	e7f8      	b.n	80024b0 <u8g2_draw_string+0x50>
	  x -= delta;
 80024be:	1a24      	subs	r4, r4, r0
 80024c0:	e7f5      	b.n	80024ae <u8g2_draw_string+0x4e>
	  y -= delta;
 80024c2:	1a2d      	subs	r5, r5, r0
 80024c4:	e7f9      	b.n	80024ba <u8g2_draw_string+0x5a>
}
 80024c6:	4650      	mov	r0, sl
 80024c8:	e8bd 87f0 	ldmia.w	sp!, {r4, r5, r6, r7, r8, r9, sl, pc}

080024cc <u8g2_DrawStr>:
{
 80024cc:	b410      	push	{r4}
  u8g2->u8x8.next_cb = u8x8_ascii_next;
 80024ce:	4c02      	ldr	r4, [pc, #8]	; (80024d8 <u8g2_DrawStr+0xc>)
 80024d0:	6044      	str	r4, [r0, #4]
}
 80024d2:	bc10      	pop	{r4}
  return u8g2_draw_string(u8g2, x, y, str);
 80024d4:	f7ff bfc4 	b.w	8002460 <u8g2_draw_string>
 80024d8:	080028b1 	.word	0x080028b1

080024dc <u8g2_UpdateRefHeight>:
  if ( u8g2->font == NULL )
 80024dc:	6cc3      	ldr	r3, [r0, #76]	; 0x4c
{
 80024de:	b510      	push	{r4, lr}
  if ( u8g2->font == NULL )
 80024e0:	b333      	cbz	r3, 8002530 <u8g2_UpdateRefHeight+0x54>
  u8g2->font_ref_ascent = u8g2->font_info.ascent_A;
 80024e2:	f990 4071 	ldrsb.w	r4, [r0, #113]	; 0x71
  u8g2->font_ref_descent = u8g2->font_info.descent_g;
 80024e6:	f990 1072 	ldrsb.w	r1, [r0, #114]	; 0x72
  if ( u8g2->font_height_mode == U8G2_FONT_HEIGHT_MODE_TEXT )
 80024ea:	f890 307d 	ldrb.w	r3, [r0, #125]	; 0x7d
  u8g2->font_ref_ascent = u8g2->font_info.ascent_A;
 80024ee:	f880 407e 	strb.w	r4, [r0, #126]	; 0x7e
  u8g2->font_ref_descent = u8g2->font_info.descent_g;
 80024f2:	f880 107f 	strb.w	r1, [r0, #127]	; 0x7f
  if ( u8g2->font_height_mode == U8G2_FONT_HEIGHT_MODE_TEXT )
 80024f6:	b1db      	cbz	r3, 8002530 <u8g2_UpdateRefHeight+0x54>
  else if ( u8g2->font_height_mode == U8G2_FONT_HEIGHT_MODE_XTEXT )
 80024f8:	2b01      	cmp	r3, #1
 80024fa:	d10c      	bne.n	8002516 <u8g2_UpdateRefHeight+0x3a>
    if ( u8g2->font_ref_ascent < u8g2->font_info.ascent_para )
 80024fc:	f990 3073 	ldrsb.w	r3, [r0, #115]	; 0x73
 8002500:	429c      	cmp	r4, r3
      u8g2->font_ref_ascent = u8g2->font_info.ascent_para;
 8002502:	bfb8      	it	lt
 8002504:	f880 307e 	strblt.w	r3, [r0, #126]	; 0x7e
    if ( u8g2->font_ref_descent > u8g2->font_info.descent_para )
 8002508:	f990 3074 	ldrsb.w	r3, [r0, #116]	; 0x74
 800250c:	4299      	cmp	r1, r3
 800250e:	dd0f      	ble.n	8002530 <u8g2_UpdateRefHeight+0x54>
      u8g2->font_ref_descent = u8g2->font_info.descent_para;
 8002510:	f880 307f 	strb.w	r3, [r0, #127]	; 0x7f
 8002514:	bd10      	pop	{r4, pc}
    if ( u8g2->font_ref_ascent < u8g2->font_info.max_char_height+u8g2->font_info.y_offset )
 8002516:	f990 2070 	ldrsb.w	r2, [r0, #112]	; 0x70
 800251a:	f990 306e 	ldrsb.w	r3, [r0, #110]	; 0x6e
 800251e:	4413      	add	r3, r2
 8002520:	429c      	cmp	r4, r3
      u8g2->font_ref_ascent = u8g2->font_info.max_char_height+u8g2->font_info.y_offset;
 8002522:	bfb8      	it	lt
 8002524:	f880 307e 	strblt.w	r3, [r0, #126]	; 0x7e
    if ( u8g2->font_ref_descent > u8g2->font_info.y_offset )
 8002528:	4291      	cmp	r1, r2
      u8g2->font_ref_descent = u8g2->font_info.y_offset;
 800252a:	bfc8      	it	gt
 800252c:	f880 207f 	strbgt.w	r2, [r0, #127]	; 0x7f
 8002530:	bd10      	pop	{r4, pc}
	...

08002534 <u8g2_SetFontPosBaseline>:

void u8g2_SetFontPosBaseline(u8g2_t *u8g2)
{
  u8g2->font_calc_vref = u8g2_font_calc_vref_font;
 8002534:	4b01      	ldr	r3, [pc, #4]	; (800253c <u8g2_SetFontPosBaseline+0x8>)
 8002536:	6503      	str	r3, [r0, #80]	; 0x50
 8002538:	4770      	bx	lr
 800253a:	bf00      	nop
 800253c:	08002083 	.word	0x08002083

08002540 <u8g2_SetFont>:

/*===============================================*/

void u8g2_SetFont(u8g2_t *u8g2, const uint8_t  *font)
{
  if ( u8g2->font != font )
 8002540:	6cc2      	ldr	r2, [r0, #76]	; 0x4c
{
 8002542:	b510      	push	{r4, lr}
  if ( u8g2->font != font )
 8002544:	428a      	cmp	r2, r1
{
 8002546:	4604      	mov	r4, r0
  if ( u8g2->font != font )
 8002548:	d008      	beq.n	800255c <u8g2_SetFont+0x1c>
  {
//#ifdef  __unix__
//	u8g2->last_font_data = NULL;
//	u8g2->last_unicode = 0x0ffff;
//#endif 
    u8g2->font = font;
 800254a:	64e1      	str	r1, [r4, #76]	; 0x4c
    u8g2_read_font_info(&(u8g2->font_info), font);
 800254c:	3064      	adds	r0, #100	; 0x64
 800254e:	f7ff fd9a 	bl	8002086 <u8g2_read_font_info>
    u8g2_UpdateRefHeight(u8g2);
 8002552:	4620      	mov	r0, r4
    /* u8g2_SetFontPosBaseline(u8g2); */ /* removed with issue 195 */
  }
}
 8002554:	e8bd 4010 	ldmia.w	sp!, {r4, lr}
    u8g2_UpdateRefHeight(u8g2);
 8002558:	f7ff bfc0 	b.w	80024dc <u8g2_UpdateRefHeight>
 800255c:	bd10      	pop	{r4, pc}

0800255e <u8g2_draw_hv_line_2dir>:
  This function first adjusts the y position to the local buffer. Then it
  will clip the line and call u8g2_draw_low_level_hv_line()

*/
void u8g2_draw_hv_line_2dir(u8g2_t *u8g2, u8g2_uint_t x, u8g2_uint_t y, u8g2_uint_t len, uint8_t dir)
{
 800255e:	b470      	push	{r4, r5, r6}

  /* clipping happens before the display rotation */

  /* transform to pixel buffer coordinates */
  y -= u8g2->pixel_curr_row;
 8002560:	f890 403c 	ldrb.w	r4, [r0, #60]	; 0x3c
{
 8002564:	f89d 600c 	ldrb.w	r6, [sp, #12]
  y -= u8g2->pixel_curr_row;
 8002568:	1b12      	subs	r2, r2, r4
  
  u8g2->ll_hvline(u8g2, x, y, len, dir);
 800256a:	6ac4      	ldr	r4, [r0, #44]	; 0x2c
 800256c:	9603      	str	r6, [sp, #12]
 800256e:	46a4      	mov	ip, r4
}
 8002570:	bc70      	pop	{r4, r5, r6}
  u8g2->ll_hvline(u8g2, x, y, len, dir);
 8002572:	b2d2      	uxtb	r2, r2
 8002574:	4760      	bx	ip

08002576 <u8g2_DrawHVLine>:
  This function should be called by the user.
  
  "dir" may have 4 directions: 0 (left to right), 1, 2, 3 (down up)
*/
void u8g2_DrawHVLine(u8g2_t *u8g2, u8g2_uint_t x, u8g2_uint_t y, u8g2_uint_t len, uint8_t dir)
{
 8002576:	b470      	push	{r4, r5, r6}
  /* Make a call to the callback function (e.g. u8g2_draw_l90_r0). */
  /* The callback may rotate the hv line */
  /* after rotation this will call u8g2_draw_hv_line_4dir() */
  
#ifdef U8G2_WITH_CLIP_WINDOW_SUPPORT
  if ( u8g2->is_page_clip_window_intersection != 0 )
 8002578:	f890 407c 	ldrb.w	r4, [r0, #124]	; 0x7c
{
 800257c:	f89d 500c 	ldrb.w	r5, [sp, #12]
  if ( u8g2->is_page_clip_window_intersection != 0 )
 8002580:	2c00      	cmp	r4, #0
 8002582:	d03a      	beq.n	80025fa <u8g2_DrawHVLine+0x84>
#endif /* U8G2_WITH_CLIP_WINDOW_SUPPORT */
    if ( len != 0 )
 8002584:	2b00      	cmp	r3, #0
 8002586:	d038      	beq.n	80025fa <u8g2_DrawHVLine+0x84>
    {
    
      /* convert to two directions */    
      if ( len > 1 )
 8002588:	2b01      	cmp	r3, #1
 800258a:	d904      	bls.n	8002596 <u8g2_DrawHVLine+0x20>
      {
	if ( dir == 2 )
 800258c:	2d02      	cmp	r5, #2
 800258e:	d12b      	bne.n	80025e8 <u8g2_DrawHVLine+0x72>
	{
	  x -= len;
	  x++;
 8002590:	3101      	adds	r1, #1
 8002592:	1ac9      	subs	r1, r1, r3
 8002594:	b2c9      	uxtb	r1, r1
	}
      }
      dir &= 1;  
      
      /* clip against the user window */
      if ( dir == 0 )
 8002596:	f015 0501 	ands.w	r5, r5, #1
 800259a:	d130      	bne.n	80025fe <u8g2_DrawHVLine+0x88>
      {
	if ( y < u8g2->user_y0 )
 800259c:	f890 4043 	ldrb.w	r4, [r0, #67]	; 0x43
 80025a0:	4294      	cmp	r4, r2
 80025a2:	d82a      	bhi.n	80025fa <u8g2_DrawHVLine+0x84>
	  return;
	if ( y >= u8g2->user_y1 )
 80025a4:	f890 4044 	ldrb.w	r4, [r0, #68]	; 0x44
 80025a8:	4294      	cmp	r4, r2
 80025aa:	d926      	bls.n	80025fa <u8g2_DrawHVLine+0x84>
  b += *len;
 80025ac:	440b      	add	r3, r1
 80025ae:	b2db      	uxtb	r3, r3
  if ( a > b )
 80025b0:	428b      	cmp	r3, r1
	  return;
	if ( u8g2_clip_intersection2(&x, &len, u8g2->user_x0, u8g2->user_x1) == 0 )
 80025b2:	f890 6041 	ldrb.w	r6, [r0, #65]	; 0x41
 80025b6:	f890 4042 	ldrb.w	r4, [r0, #66]	; 0x42
  if ( a > b )
 80025ba:	d21c      	bcs.n	80025f6 <u8g2_DrawHVLine+0x80>
    if ( a < d )
 80025bc:	428c      	cmp	r4, r1
 80025be:	d919      	bls.n	80025f4 <u8g2_DrawHVLine+0x7e>
      b--;
 80025c0:	1e63      	subs	r3, r4, #1
 80025c2:	b2db      	uxtb	r3, r3
  if ( b <= c )
 80025c4:	429e      	cmp	r6, r3
 80025c6:	d218      	bcs.n	80025fa <u8g2_DrawHVLine+0x84>
 80025c8:	42b1      	cmp	r1, r6
 80025ca:	bf38      	it	cc
 80025cc:	4631      	movcc	r1, r6
  b -= a;
 80025ce:	429c      	cmp	r4, r3
 80025d0:	bf94      	ite	ls
 80025d2:	ebc1 0404 	rsbls	r4, r1, r4
 80025d6:	ebc1 0403 	rsbhi	r4, r1, r3
 80025da:	b2e3      	uxtb	r3, r4
	if ( u8g2_clip_intersection2(&y, &len, u8g2->user_y0, u8g2->user_y1) == 0 )
	  return;
      }
      
      
      u8g2->cb->draw_l90(u8g2, x, y, len, dir);
 80025dc:	6b04      	ldr	r4, [r0, #48]	; 0x30
 80025de:	9503      	str	r5, [sp, #12]
 80025e0:	68a4      	ldr	r4, [r4, #8]
 80025e2:	46a4      	mov	ip, r4
    }
}
 80025e4:	bc70      	pop	{r4, r5, r6}
      u8g2->cb->draw_l90(u8g2, x, y, len, dir);
 80025e6:	4760      	bx	ip
	else if ( dir == 3 )
 80025e8:	2d03      	cmp	r5, #3
	  y++;
 80025ea:	bf02      	ittt	eq
 80025ec:	3201      	addeq	r2, #1
 80025ee:	1ad2      	subeq	r2, r2, r3
 80025f0:	b2d2      	uxtbeq	r2, r2
 80025f2:	e7d0      	b.n	8002596 <u8g2_DrawHVLine+0x20>
	if ( u8g2_clip_intersection2(&x, &len, u8g2->user_x0, u8g2->user_x1) == 0 )
 80025f4:	4631      	mov	r1, r6
  if ( a >= d )
 80025f6:	428c      	cmp	r4, r1
 80025f8:	d8e4      	bhi.n	80025c4 <u8g2_DrawHVLine+0x4e>
}
 80025fa:	bc70      	pop	{r4, r5, r6}
 80025fc:	4770      	bx	lr
	if ( x < u8g2->user_x0 )
 80025fe:	f890 4041 	ldrb.w	r4, [r0, #65]	; 0x41
 8002602:	428c      	cmp	r4, r1
 8002604:	d8f9      	bhi.n	80025fa <u8g2_DrawHVLine+0x84>
	if ( x >= u8g2->user_x1 )
 8002606:	f890 4042 	ldrb.w	r4, [r0, #66]	; 0x42
 800260a:	428c      	cmp	r4, r1
 800260c:	d9f5      	bls.n	80025fa <u8g2_DrawHVLine+0x84>
  b += *len;
 800260e:	4413      	add	r3, r2
 8002610:	b2db      	uxtb	r3, r3
  if ( a > b )
 8002612:	4293      	cmp	r3, r2
	if ( u8g2_clip_intersection2(&y, &len, u8g2->user_y0, u8g2->user_y1) == 0 )
 8002614:	f890 6043 	ldrb.w	r6, [r0, #67]	; 0x43
 8002618:	f890 4044 	ldrb.w	r4, [r0, #68]	; 0x44
  if ( a > b )
 800261c:	d210      	bcs.n	8002640 <u8g2_DrawHVLine+0xca>
    if ( a < d )
 800261e:	4294      	cmp	r4, r2
 8002620:	d90d      	bls.n	800263e <u8g2_DrawHVLine+0xc8>
      b--;
 8002622:	1e63      	subs	r3, r4, #1
 8002624:	b2db      	uxtb	r3, r3
  if ( b <= c )
 8002626:	429e      	cmp	r6, r3
 8002628:	d2e7      	bcs.n	80025fa <u8g2_DrawHVLine+0x84>
 800262a:	42b2      	cmp	r2, r6
 800262c:	bf38      	it	cc
 800262e:	4632      	movcc	r2, r6
  b -= a;
 8002630:	429c      	cmp	r4, r3
 8002632:	bf94      	ite	ls
 8002634:	ebc2 0404 	rsbls	r4, r2, r4
 8002638:	ebc2 0403 	rsbhi	r4, r2, r3
 800263c:	e7cd      	b.n	80025da <u8g2_DrawHVLine+0x64>
	if ( u8g2_clip_intersection2(&y, &len, u8g2->user_y0, u8g2->user_y1) == 0 )
 800263e:	4632      	mov	r2, r6
  if ( a >= d )
 8002640:	4294      	cmp	r4, r2
 8002642:	d9da      	bls.n	80025fa <u8g2_DrawHVLine+0x84>
 8002644:	e7ef      	b.n	8002626 <u8g2_DrawHVLine+0xb0>

08002646 <u8g2_is_intersection_decision_tree>:
  a1 and v1 are excluded
  v0 == v1 is not support end return 1
*/
uint8_t u8g2_is_intersection_decision_tree(u8g2_uint_t a0, u8g2_uint_t a1, u8g2_uint_t v0, u8g2_uint_t v1)
{
  if ( v0 < a1 )		// v0 <= a1
 8002646:	428a      	cmp	r2, r1
 8002648:	d206      	bcs.n	8002658 <u8g2_is_intersection_decision_tree+0x12>
  {
    if ( v1 > a0 )	// v1 >= a0
 800264a:	4283      	cmp	r3, r0
 800264c:	d808      	bhi.n	8002660 <u8g2_is_intersection_decision_tree+0x1a>
    {
      return 1;
 800264e:	429a      	cmp	r2, r3
 8002650:	bf94      	ite	ls
 8002652:	2000      	movls	r0, #0
 8002654:	2001      	movhi	r0, #1
 8002656:	4770      	bx	lr
      }
    }
  }
  else
  {
    if ( v1 > a0 )	// v1 >= a0
 8002658:	4283      	cmp	r3, r0
 800265a:	d8f8      	bhi.n	800264e <u8g2_is_intersection_decision_tree+0x8>
	return 0;
      }
    }
    else
    {
      return 0;
 800265c:	2000      	movs	r0, #0
 800265e:	4770      	bx	lr
      return 1;
 8002660:	2001      	movs	r0, #1
    }
  }
}
 8002662:	4770      	bx	lr

08002664 <u8g2_IsIntersection>:



/* upper limits are not included (asymetric boundaries) */
uint8_t u8g2_IsIntersection(u8g2_t *u8g2, u8g2_uint_t x0, u8g2_uint_t y0, u8g2_uint_t x1, u8g2_uint_t y1)
{
 8002664:	b570      	push	{r4, r5, r6, lr}
 8002666:	4604      	mov	r4, r0
 8002668:	460d      	mov	r5, r1
 800266a:	461e      	mov	r6, r3
  if ( u8g2_is_intersection_decision_tree(u8g2->user_y0, u8g2->user_y1, y0, y1) == 0 )
 800266c:	f890 1044 	ldrb.w	r1, [r0, #68]	; 0x44
 8002670:	f89d 3010 	ldrb.w	r3, [sp, #16]
 8002674:	f890 0043 	ldrb.w	r0, [r0, #67]	; 0x43
 8002678:	f7ff ffe5 	bl	8002646 <u8g2_is_intersection_decision_tree>
 800267c:	b148      	cbz	r0, 8002692 <u8g2_IsIntersection+0x2e>
    return 0; 
  
  return u8g2_is_intersection_decision_tree(u8g2->user_x0, u8g2->user_x1, x0, x1);
 800267e:	4633      	mov	r3, r6
 8002680:	462a      	mov	r2, r5
 8002682:	f894 1042 	ldrb.w	r1, [r4, #66]	; 0x42
 8002686:	f894 0041 	ldrb.w	r0, [r4, #65]	; 0x41
}
 800268a:	e8bd 4070 	ldmia.w	sp!, {r4, r5, r6, lr}
  return u8g2_is_intersection_decision_tree(u8g2->user_x0, u8g2->user_x1, x0, x1);
 800268e:	f7ff bfda 	b.w	8002646 <u8g2_is_intersection_decision_tree>
}
 8002692:	bd70      	pop	{r4, r5, r6, pc}

08002694 <u8g2_ll_hvline_vertical_top_lsb>:
		1: vertical line (top to bottom)
  asumption: 
    all clipping done
*/
void u8g2_ll_hvline_vertical_top_lsb(u8g2_t *u8g2, u8g2_uint_t x, u8g2_uint_t y, u8g2_uint_t len, uint8_t dir)
{
 8002694:	b5f0      	push	{r4, r5, r6, r7, lr}
  
  /* bytes are vertical, lsb on top (y=0), msb at bottom (y=7) */
  bit_pos = y;		/* overflow truncate is ok here... */
  bit_pos &= 7; 	/* ... because only the lowest 3 bits are needed */
  mask = 1;
  mask <<= bit_pos;
 8002696:	2401      	movs	r4, #1

  or_mask = 0;
  xor_mask = 0;
  if ( u8g2->draw_color <= 1 )
 8002698:	f890 5082 	ldrb.w	r5, [r0, #130]	; 0x82
  bit_pos &= 7; 	/* ... because only the lowest 3 bits are needed */
 800269c:	f002 0607 	and.w	r6, r2, #7
  mask <<= bit_pos;
 80026a0:	40b4      	lsls	r4, r6
  if ( u8g2->draw_color <= 1 )
 80026a2:	2d01      	cmp	r5, #1
{
 80026a4:	f89d 7014 	ldrb.w	r7, [sp, #20]
  mask <<= bit_pos;
 80026a8:	b2e4      	uxtb	r4, r4
  if ( u8g2->draw_color <= 1 )
 80026aa:	d817      	bhi.n	80026dc <u8g2_ll_hvline_vertical_top_lsb+0x48>
    or_mask  = mask;
 80026ac:	4625      	mov	r5, r4
  if ( u8g2->draw_color != 1 )
 80026ae:	d017      	beq.n	80026e0 <u8g2_ll_hvline_vertical_top_lsb+0x4c>
    xor_mask = mask;


  offset = y;		/* y might be 8 or 16 bit, but we need 16 bit, so use a 16 bit variable */
  offset &= ~7;
 80026b0:	f002 0ef8 	and.w	lr, r2, #248	; 0xf8
  offset *= u8g2_GetU8x8(u8g2)->display_info->tile_width;
 80026b4:	6802      	ldr	r2, [r0, #0]
 80026b6:	f892 c010 	ldrb.w	ip, [r2, #16]
  ptr = u8g2->tile_buf_ptr;
  ptr += offset;
  ptr += x;
 80026ba:	6b42      	ldr	r2, [r0, #52]	; 0x34
 80026bc:	fb0c 110e 	mla	r1, ip, lr, r1
 80026c0:	4411      	add	r1, r2
  
  if ( dir == 0 )
 80026c2:	b97f      	cbnz	r7, 80026e4 <u8g2_ll_hvline_vertical_top_lsb+0x50>
 80026c4:	3b01      	subs	r3, #1
 80026c6:	b2db      	uxtb	r3, r3
 80026c8:	3301      	adds	r3, #1
 80026ca:	440b      	add	r3, r1
      do
      {
#ifdef __unix
	assert(ptr < max_ptr);
#endif
	*ptr |= or_mask;
 80026cc:	780a      	ldrb	r2, [r1, #0]
 80026ce:	432a      	orrs	r2, r5
	*ptr ^= xor_mask;
 80026d0:	4062      	eors	r2, r4
 80026d2:	f801 2b01 	strb.w	r2, [r1], #1
	ptr++;
	len--;
      } while( len != 0 );
 80026d6:	4299      	cmp	r1, r3
 80026d8:	d1f8      	bne.n	80026cc <u8g2_ll_hvline_vertical_top_lsb+0x38>
 80026da:	bdf0      	pop	{r4, r5, r6, r7, pc}
  or_mask = 0;
 80026dc:	2500      	movs	r5, #0
 80026de:	e7e7      	b.n	80026b0 <u8g2_ll_hvline_vertical_top_lsb+0x1c>
  xor_mask = 0;
 80026e0:	2400      	movs	r4, #0
 80026e2:	e7e5      	b.n	80026b0 <u8g2_ll_hvline_vertical_top_lsb+0x1c>
    do
    {
#ifdef __unix
      assert(ptr < max_ptr);
#endif
      *ptr |= or_mask;
 80026e4:	780a      	ldrb	r2, [r1, #0]
      *ptr ^= xor_mask;
      
      bit_pos++;
 80026e6:	3601      	adds	r6, #1
      *ptr |= or_mask;
 80026e8:	432a      	orrs	r2, r5
      *ptr ^= xor_mask;
 80026ea:	4062      	eors	r2, r4
      bit_pos &= 7;

      len--;
 80026ec:	3b01      	subs	r3, #1

      if ( bit_pos == 0 )
 80026ee:	f016 0607 	ands.w	r6, r6, #7
      *ptr ^= xor_mask;
 80026f2:	700a      	strb	r2, [r1, #0]
      len--;
 80026f4:	b2db      	uxtb	r3, r3
      if ( bit_pos == 0 )
 80026f6:	d10c      	bne.n	8002712 <u8g2_ll_hvline_vertical_top_lsb+0x7e>
      {
	ptr+=u8g2->pixel_buf_width;	/* 6 Jan 17: Changed u8g2->width to u8g2->pixel_buf_width, issue #148 */
 80026f8:	f890 203a 	ldrb.w	r2, [r0, #58]	; 0x3a
 80026fc:	4411      	add	r1, r2
		
	if ( u8g2->draw_color <= 1 )
 80026fe:	f890 2082 	ldrb.w	r2, [r0, #130]	; 0x82
 8002702:	2a01      	cmp	r2, #1
 8002704:	d80a      	bhi.n	800271c <u8g2_ll_hvline_vertical_top_lsb+0x88>
	  or_mask  = 1;
	if ( u8g2->draw_color != 1 )
 8002706:	d00b      	beq.n	8002720 <u8g2_ll_hvline_vertical_top_lsb+0x8c>
	  xor_mask = 1;
 8002708:	2401      	movs	r4, #1
	  or_mask  = 1;
 800270a:	4625      	mov	r5, r4
      else
      {
	or_mask <<= 1;
	xor_mask <<= 1;
      }
    } while( len != 0 );
 800270c:	2b00      	cmp	r3, #0
 800270e:	d1e9      	bne.n	80026e4 <u8g2_ll_hvline_vertical_top_lsb+0x50>
 8002710:	bdf0      	pop	{r4, r5, r6, r7, pc}
	or_mask <<= 1;
 8002712:	006d      	lsls	r5, r5, #1
	xor_mask <<= 1;
 8002714:	0064      	lsls	r4, r4, #1
	or_mask <<= 1;
 8002716:	b2ed      	uxtb	r5, r5
	xor_mask <<= 1;
 8002718:	b2e4      	uxtb	r4, r4
 800271a:	e7f7      	b.n	800270c <u8g2_ll_hvline_vertical_top_lsb+0x78>
	  xor_mask = 1;
 800271c:	2401      	movs	r4, #1
 800271e:	e7f5      	b.n	800270c <u8g2_ll_hvline_vertical_top_lsb+0x78>
	  or_mask  = 1;
 8002720:	4615      	mov	r5, r2
 8002722:	e7f3      	b.n	800270c <u8g2_ll_hvline_vertical_top_lsb+0x78>

08002724 <u8g2_update_dimension_common>:
    u8g2_uint_t buf_y0;
    u8g2_uint_t buf_y1; 	
*/

static void u8g2_update_dimension_common(u8g2_t *u8g2)
{
 8002724:	b570      	push	{r4, r5, r6, lr}
  const u8x8_display_info_t *display_info = u8g2_GetU8x8(u8g2)->display_info;
  u8g2_uint_t t;
  
  t = u8g2->tile_buf_height;
 8002726:	f890 4038 	ldrb.w	r4, [r0, #56]	; 0x38
  const u8x8_display_info_t *display_info = u8g2_GetU8x8(u8g2)->display_info;
 800272a:	6801      	ldr	r1, [r0, #0]
  t *= 8;
 800272c:	00e3      	lsls	r3, r4, #3
  u8g2->pixel_buf_height = t;
 800272e:	f880 303b 	strb.w	r3, [r0, #59]	; 0x3b
  
  t = display_info->tile_width;
 8002732:	7c0a      	ldrb	r2, [r1, #16]
    t = 31;
#endif
  t *= 8;
  u8g2->pixel_buf_width = t;
  
  t = u8g2->tile_curr_row;
 8002734:	f890 5039 	ldrb.w	r5, [r0, #57]	; 0x39
 8002738:	2a1f      	cmp	r2, #31
 800273a:	bf28      	it	cs
 800273c:	221f      	movcs	r2, #31
  t *= 8;
 800273e:	00eb      	lsls	r3, r5, #3
 8002740:	b2db      	uxtb	r3, r3
  t *= 8;
 8002742:	00d2      	lsls	r2, r2, #3
  u8g2->pixel_curr_row = t;
 8002744:	f880 303c 	strb.w	r3, [r0, #60]	; 0x3c
  u8g2->pixel_buf_width = t;
 8002748:	f880 203a 	strb.w	r2, [r0, #58]	; 0x3a
  
  t = u8g2->tile_buf_height;
  /* handle the case, where the buffer is larger than the (remaining) part of the display */
  if ( t + u8g2->tile_curr_row > display_info->tile_height )
 800274c:	7c4a      	ldrb	r2, [r1, #17]
 800274e:	1966      	adds	r6, r4, r5
 8002750:	4296      	cmp	r6, r2
    t = display_info->tile_height - u8g2->tile_curr_row;
 8002752:	bfc4      	itt	gt
 8002754:	1b54      	subgt	r4, r2, r5
 8002756:	b2e4      	uxtbgt	r4, r4
  t *= 8;
  
  u8g2->buf_y0 = u8g2->pixel_curr_row;   
 8002758:	f880 303d 	strb.w	r3, [r0, #61]	; 0x3d
  u8g2->buf_y1 = u8g2->buf_y0;
  u8g2->buf_y1 += t;
 800275c:	eb03 03c4 	add.w	r3, r3, r4, lsl #3
 8002760:	f880 303e 	strb.w	r3, [r0, #62]	; 0x3e
  
#ifdef U8G2_16BIT
  u8g2->width = display_info->pixel_width;
  u8g2->height = display_info->pixel_height;
#else
  u8g2->width = 240;
 8002764:	23f0      	movs	r3, #240	; 0xf0
 8002766:	f880 303f 	strb.w	r3, [r0, #63]	; 0x3f
  if ( display_info->pixel_width <= 240 )
 800276a:	8a8b      	ldrh	r3, [r1, #20]
 800276c:	2bf0      	cmp	r3, #240	; 0xf0
    u8g2->width = display_info->pixel_width;
 800276e:	bf98      	it	ls
 8002770:	f880 303f 	strbls.w	r3, [r0, #63]	; 0x3f
  u8g2->height = display_info->pixel_height;
 8002774:	8acb      	ldrh	r3, [r1, #22]
 8002776:	f880 3040 	strb.w	r3, [r0, #64]	; 0x40
 800277a:	bd70      	pop	{r4, r5, r6, pc}

0800277c <u8g2_update_dimension_r2>:
#endif /* U8G2_WITH_CLIP_WINDOW_SUPPORT */
}

void u8g2_update_dimension_r2(u8g2_t *u8g2)
{
  u8g2_update_dimension_common(u8g2);
 800277c:	f7ff bfd2 	b.w	8002724 <u8g2_update_dimension_common>

08002780 <u8g2_draw_l90_r2>:
  
  u8g2_draw_hv_line_2dir(u8g2, xx, yy, len, dir);
}

void u8g2_draw_l90_r2(u8g2_t *u8g2, u8g2_uint_t x, u8g2_uint_t y, u8g2_uint_t len, uint8_t dir)
{
 8002780:	b430      	push	{r4, r5}
    yy -= len;
    yy++;
  }
  */

  yy = u8g2->height;
 8002782:	f890 4040 	ldrb.w	r4, [r0, #64]	; 0x40
{
 8002786:	f89d 5008 	ldrb.w	r5, [sp, #8]
  yy -= y;
 800278a:	1aa2      	subs	r2, r4, r2
  
  xx = u8g2->width;
 800278c:	f890 403f 	ldrb.w	r4, [r0, #63]	; 0x3f
  yy -= y;
 8002790:	b2d2      	uxtb	r2, r2
  xx -= x;
 8002792:	1a61      	subs	r1, r4, r1
 8002794:	b2c9      	uxtb	r1, r1
  
  if ( dir == 0 )
 8002796:	b93d      	cbnz	r5, 80027a8 <u8g2_draw_l90_r2+0x28>
  {
    yy--;
 8002798:	3a01      	subs	r2, #1
    xx -= len;
 800279a:	1ac9      	subs	r1, r1, r3
    yy--;
 800279c:	b2d2      	uxtb	r2, r2
    xx -= len;
 800279e:	b2c9      	uxtb	r1, r1
  {
    xx--;
    yy -= len;
  }

  u8g2_draw_hv_line_2dir(u8g2, xx, yy, len, dir);
 80027a0:	9502      	str	r5, [sp, #8]
}
 80027a2:	bc30      	pop	{r4, r5}
  u8g2_draw_hv_line_2dir(u8g2, xx, yy, len, dir);
 80027a4:	f7ff bedb 	b.w	800255e <u8g2_draw_hv_line_2dir>
  else if ( dir == 1 )
 80027a8:	2d01      	cmp	r5, #1
    xx--;
 80027aa:	bf01      	itttt	eq
 80027ac:	f101 31ff 	addeq.w	r1, r1, #4294967295	; 0xffffffff
    yy -= len;
 80027b0:	1ad2      	subeq	r2, r2, r3
    xx--;
 80027b2:	b2c9      	uxtbeq	r1, r1
    yy -= len;
 80027b4:	b2d2      	uxtbeq	r2, r2
 80027b6:	e7f3      	b.n	80027a0 <u8g2_draw_l90_r2+0x20>

080027b8 <u8g2_apply_clip_window>:
{
 80027b8:	b537      	push	{r0, r1, r2, r4, r5, lr}
  if ( u8g2_IsIntersection(u8g2, u8g2->clip_x0, u8g2->clip_y0, u8g2->clip_x1, u8g2->clip_y1) == 0 ) 
 80027ba:	f890 5048 	ldrb.w	r5, [r0, #72]	; 0x48
 80027be:	f890 3046 	ldrb.w	r3, [r0, #70]	; 0x46
 80027c2:	f890 2047 	ldrb.w	r2, [r0, #71]	; 0x47
 80027c6:	f890 1045 	ldrb.w	r1, [r0, #69]	; 0x45
 80027ca:	9500      	str	r5, [sp, #0]
{
 80027cc:	4604      	mov	r4, r0
  if ( u8g2_IsIntersection(u8g2, u8g2->clip_x0, u8g2->clip_y0, u8g2->clip_x1, u8g2->clip_y1) == 0 ) 
 80027ce:	f7ff ff49 	bl	8002664 <u8g2_IsIntersection>
 80027d2:	b918      	cbnz	r0, 80027dc <u8g2_apply_clip_window+0x24>
    u8g2->is_page_clip_window_intersection = 0;
 80027d4:	f884 007c 	strb.w	r0, [r4, #124]	; 0x7c
}
 80027d8:	b003      	add	sp, #12
 80027da:	bd30      	pop	{r4, r5, pc}
    u8g2->is_page_clip_window_intersection = 1;
 80027dc:	2301      	movs	r3, #1
    if ( u8g2->user_x0 < u8g2->clip_x0 )
 80027de:	f894 2041 	ldrb.w	r2, [r4, #65]	; 0x41
    u8g2->is_page_clip_window_intersection = 1;
 80027e2:	f884 307c 	strb.w	r3, [r4, #124]	; 0x7c
    if ( u8g2->user_x0 < u8g2->clip_x0 )
 80027e6:	f894 3045 	ldrb.w	r3, [r4, #69]	; 0x45
 80027ea:	429a      	cmp	r2, r3
      u8g2->user_x0 = u8g2->clip_x0;
 80027ec:	bf38      	it	cc
 80027ee:	f884 3041 	strbcc.w	r3, [r4, #65]	; 0x41
    if ( u8g2->user_x1 > u8g2->clip_x1 )
 80027f2:	f894 2042 	ldrb.w	r2, [r4, #66]	; 0x42
 80027f6:	f894 3046 	ldrb.w	r3, [r4, #70]	; 0x46
 80027fa:	429a      	cmp	r2, r3
      u8g2->user_x1 = u8g2->clip_x1;
 80027fc:	bf88      	it	hi
 80027fe:	f884 3042 	strbhi.w	r3, [r4, #66]	; 0x42
    if ( u8g2->user_y0 < u8g2->clip_y0 )
 8002802:	f894 2043 	ldrb.w	r2, [r4, #67]	; 0x43
 8002806:	f894 3047 	ldrb.w	r3, [r4, #71]	; 0x47
 800280a:	429a      	cmp	r2, r3
      u8g2->user_y0 = u8g2->clip_y0;
 800280c:	bf38      	it	cc
 800280e:	f884 3043 	strbcc.w	r3, [r4, #67]	; 0x43
    if ( u8g2->user_y1 > u8g2->clip_y1 )
 8002812:	f894 2044 	ldrb.w	r2, [r4, #68]	; 0x44
 8002816:	f894 3048 	ldrb.w	r3, [r4, #72]	; 0x48
 800281a:	429a      	cmp	r2, r3
      u8g2->user_y1 = u8g2->clip_y1;
 800281c:	bf88      	it	hi
 800281e:	f884 3044 	strbhi.w	r3, [r4, #68]	; 0x44
}
 8002822:	e7d9      	b.n	80027d8 <u8g2_apply_clip_window+0x20>

08002824 <u8g2_update_page_win_r2>:
  u8g2->user_x0 = 0;
 8002824:	2300      	movs	r3, #0
  u8g2->user_x1 = u8g2->width;	/* pixel_buf_width replaced with width */
 8002826:	f890 203f 	ldrb.w	r2, [r0, #63]	; 0x3f
  u8g2->user_y0 = 0;
 800282a:	f880 3043 	strb.w	r3, [r0, #67]	; 0x43
  u8g2->user_x0 = 0;
 800282e:	f880 3041 	strb.w	r3, [r0, #65]	; 0x41
  u8g2->user_x1 = u8g2->width;	/* pixel_buf_width replaced with width */
 8002832:	f880 2042 	strb.w	r2, [r0, #66]	; 0x42
  if ( u8g2->height >= u8g2->buf_y1 )
 8002836:	f890 3040 	ldrb.w	r3, [r0, #64]	; 0x40
 800283a:	f890 203e 	ldrb.w	r2, [r0, #62]	; 0x3e
 800283e:	4293      	cmp	r3, r2
    u8g2->user_y0 = u8g2->height - u8g2->buf_y1;
 8002840:	bf24      	itt	cs
 8002842:	1a9a      	subcs	r2, r3, r2
 8002844:	f880 2043 	strbcs.w	r2, [r0, #67]	; 0x43
  u8g2->user_y1 = u8g2->height - u8g2->buf_y0;
 8002848:	f890 203d 	ldrb.w	r2, [r0, #61]	; 0x3d
 800284c:	1a9b      	subs	r3, r3, r2
 800284e:	f880 3044 	strb.w	r3, [r0, #68]	; 0x44
  u8g2_apply_clip_window(u8g2);
 8002852:	f7ff bfb1 	b.w	80027b8 <u8g2_apply_clip_window>

08002856 <u8g2_SetMaxClipWindow>:
  u8g2->clip_x0 = 0;
 8002856:	2200      	movs	r2, #0
 8002858:	f880 2045 	strb.w	r2, [r0, #69]	; 0x45
  u8g2->clip_y0 = 0;
 800285c:	f880 2047 	strb.w	r2, [r0, #71]	; 0x47
  u8g2->clip_x1 = (u8g2_uint_t)~(u8g2_uint_t)0;
 8002860:	22ff      	movs	r2, #255	; 0xff
  u8g2->cb->update_page_win(u8g2);
 8002862:	6b03      	ldr	r3, [r0, #48]	; 0x30
  u8g2->clip_x1 = (u8g2_uint_t)~(u8g2_uint_t)0;
 8002864:	f880 2046 	strb.w	r2, [r0, #70]	; 0x46
  u8g2->clip_y1 = (u8g2_uint_t)~(u8g2_uint_t)0;
 8002868:	f880 2048 	strb.w	r2, [r0, #72]	; 0x48
  u8g2->cb->update_page_win(u8g2);
 800286c:	685b      	ldr	r3, [r3, #4]
 800286e:	4718      	bx	r3

08002870 <u8g2_SetupBuffer>:
{
 8002870:	b570      	push	{r4, r5, r6, lr}
  u8g2->font = NULL;
 8002872:	2500      	movs	r5, #0
  u8g2->ll_hvline = ll_hvline_cb;
 8002874:	62c3      	str	r3, [r0, #44]	; 0x2c
  u8g2->draw_color = 1;
 8002876:	2301      	movs	r3, #1
{
 8002878:	4604      	mov	r4, r0
 800287a:	9e04      	ldr	r6, [sp, #16]
  u8g2->tile_buf_height = tile_buf_height;
 800287c:	f880 2038 	strb.w	r2, [r0, #56]	; 0x38
  u8g2->tile_curr_row = 0;
 8002880:	f880 5039 	strb.w	r5, [r0, #57]	; 0x39
  u8g2->font_decode.is_transparent = 0; /* issue 443 */
 8002884:	f880 505f 	strb.w	r5, [r0, #95]	; 0x5f
  u8g2->bitmap_transparency = 0;
 8002888:	f880 5081 	strb.w	r5, [r0, #129]	; 0x81
  u8g2->draw_color = 1;
 800288c:	f880 3082 	strb.w	r3, [r0, #130]	; 0x82
  u8g2->is_auto_page_clear = 1;
 8002890:	f880 3083 	strb.w	r3, [r0, #131]	; 0x83
  u8g2->tile_buf_ptr = buf;
 8002894:	6341      	str	r1, [r0, #52]	; 0x34
  u8g2->cb->update_dimension(u8g2);
 8002896:	6833      	ldr	r3, [r6, #0]
  u8g2->font = NULL;
 8002898:	64c5      	str	r5, [r0, #76]	; 0x4c
  u8g2->cb = u8g2_cb;
 800289a:	6306      	str	r6, [r0, #48]	; 0x30
  u8g2->cb->update_dimension(u8g2);
 800289c:	4798      	blx	r3
  u8g2_SetMaxClipWindow(u8g2);		/* assign a clip window and call the update() procedure */
 800289e:	4620      	mov	r0, r4
 80028a0:	f7ff ffd9 	bl	8002856 <u8g2_SetMaxClipWindow>
  u8g2_SetFontPosBaseline(u8g2);  /* issue 195 */
 80028a4:	4620      	mov	r0, r4
 80028a6:	f7ff fe45 	bl	8002534 <u8g2_SetFontPosBaseline>
  u8g2->font_decode.dir = 0;
 80028aa:	f884 5062 	strb.w	r5, [r4, #98]	; 0x62
 80028ae:	bd70      	pop	{r4, r5, r6, pc}

080028b0 <u8x8_ascii_next>:
  u8x8->utf8_state = 0;	/* also reset during u8x8_SetupDefaults() */
}

uint16_t u8x8_ascii_next(U8X8_UNUSED u8x8_t *u8x8, uint8_t b)
{
  if ( b == 0 || b == '\n' ) /* '\n' terminates the string to support the string list procedures */
 80028b0:	b119      	cbz	r1, 80028ba <u8x8_ascii_next+0xa>
 80028b2:	290a      	cmp	r1, #10
 80028b4:	d001      	beq.n	80028ba <u8x8_ascii_next+0xa>
    return 0x0ffff;	/* end of string detected*/
  return b;
 80028b6:	b288      	uxth	r0, r1
 80028b8:	4770      	bx	lr
    return 0x0ffff;	/* end of string detected*/
 80028ba:	f64f 70ff 	movw	r0, #65535	; 0xffff
}
 80028be:	4770      	bx	lr

080028c0 <u8x8_utf8_init>:
  u8x8->utf8_state = 0;	/* also reset during u8x8_SetupDefaults() */
 80028c0:	2300      	movs	r3, #0
 80028c2:	f880 3026 	strb.w	r3, [r0, #38]	; 0x26
 80028c6:	4770      	bx	lr

080028c8 <u8x8_byte_SetDC>:
*/

#include "u8x8.h"

uint8_t u8x8_byte_SetDC(u8x8_t *u8x8, uint8_t dc)
{
 80028c8:	b410      	push	{r4}
  return u8x8->byte_cb(u8x8, U8X8_MSG_BYTE_SET_DC, dc, NULL);
 80028ca:	6904      	ldr	r4, [r0, #16]
 80028cc:	460a      	mov	r2, r1
 80028ce:	46a4      	mov	ip, r4
 80028d0:	2300      	movs	r3, #0
 80028d2:	2120      	movs	r1, #32
}
 80028d4:	bc10      	pop	{r4}
  return u8x8->byte_cb(u8x8, U8X8_MSG_BYTE_SET_DC, dc, NULL);
 80028d6:	4760      	bx	ip

080028d8 <u8x8_byte_SendBytes>:

uint8_t u8x8_byte_SendBytes(u8x8_t *u8x8, uint8_t cnt, uint8_t *data)
{
 80028d8:	b410      	push	{r4}
  return u8x8->byte_cb(u8x8, U8X8_MSG_BYTE_SEND, cnt, (void *)data);
 80028da:	6904      	ldr	r4, [r0, #16]
 80028dc:	4613      	mov	r3, r2
 80028de:	46a4      	mov	ip, r4
 80028e0:	460a      	mov	r2, r1
}
 80028e2:	bc10      	pop	{r4}
  return u8x8->byte_cb(u8x8, U8X8_MSG_BYTE_SEND, cnt, (void *)data);
 80028e4:	2117      	movs	r1, #23
 80028e6:	4760      	bx	ip

080028e8 <u8x8_byte_SendByte>:

uint8_t u8x8_byte_SendByte(u8x8_t *u8x8, uint8_t byte)
{
 80028e8:	b507      	push	{r0, r1, r2, lr}
 80028ea:	aa02      	add	r2, sp, #8
 80028ec:	f802 1d01 	strb.w	r1, [r2, #-1]!
  return u8x8_byte_SendBytes(u8x8, 1, &byte);
 80028f0:	2101      	movs	r1, #1
 80028f2:	f7ff fff1 	bl	80028d8 <u8x8_byte_SendBytes>
}
 80028f6:	b003      	add	sp, #12
 80028f8:	f85d fb04 	ldr.w	pc, [sp], #4

080028fc <u8x8_cad_SendCmd>:
*/

#include "u8x8.h"

uint8_t u8x8_cad_SendCmd(u8x8_t *u8x8, uint8_t cmd)
{
 80028fc:	b410      	push	{r4}
  return u8x8->cad_cb(u8x8, U8X8_MSG_CAD_SEND_CMD, cmd, NULL);
 80028fe:	68c4      	ldr	r4, [r0, #12]
 8002900:	460a      	mov	r2, r1
 8002902:	46a4      	mov	ip, r4
 8002904:	2300      	movs	r3, #0
 8002906:	2115      	movs	r1, #21
}
 8002908:	bc10      	pop	{r4}
  return u8x8->cad_cb(u8x8, U8X8_MSG_CAD_SEND_CMD, cmd, NULL);
 800290a:	4760      	bx	ip

0800290c <u8x8_cad_SendArg>:

uint8_t u8x8_cad_SendArg(u8x8_t *u8x8, uint8_t arg)
{
 800290c:	b410      	push	{r4}
  return u8x8->cad_cb(u8x8, U8X8_MSG_CAD_SEND_ARG, arg, NULL);
 800290e:	68c4      	ldr	r4, [r0, #12]
 8002910:	460a      	mov	r2, r1
 8002912:	46a4      	mov	ip, r4
 8002914:	2300      	movs	r3, #0
 8002916:	2116      	movs	r1, #22
}
 8002918:	bc10      	pop	{r4}
  return u8x8->cad_cb(u8x8, U8X8_MSG_CAD_SEND_ARG, arg, NULL);
 800291a:	4760      	bx	ip

0800291c <u8x8_cad_SendData>:
  }
  return 1;
}

uint8_t u8x8_cad_SendData(u8x8_t *u8x8, uint8_t cnt, uint8_t *data)
{
 800291c:	b410      	push	{r4}
  return u8x8->cad_cb(u8x8, U8X8_MSG_CAD_SEND_DATA, cnt, data);
 800291e:	68c4      	ldr	r4, [r0, #12]
 8002920:	4613      	mov	r3, r2
 8002922:	46a4      	mov	ip, r4
 8002924:	460a      	mov	r2, r1
}
 8002926:	bc10      	pop	{r4}
  return u8x8->cad_cb(u8x8, U8X8_MSG_CAD_SEND_DATA, cnt, data);
 8002928:	2117      	movs	r1, #23
 800292a:	4760      	bx	ip

0800292c <u8x8_cad_StartTransfer>:

uint8_t u8x8_cad_StartTransfer(u8x8_t *u8x8)
{
  return u8x8->cad_cb(u8x8, U8X8_MSG_CAD_START_TRANSFER, 0, NULL);
 800292c:	2300      	movs	r3, #0
{
 800292e:	b410      	push	{r4}
  return u8x8->cad_cb(u8x8, U8X8_MSG_CAD_START_TRANSFER, 0, NULL);
 8002930:	68c4      	ldr	r4, [r0, #12]
 8002932:	461a      	mov	r2, r3
 8002934:	46a4      	mov	ip, r4
 8002936:	2118      	movs	r1, #24
}
 8002938:	bc10      	pop	{r4}
  return u8x8->cad_cb(u8x8, U8X8_MSG_CAD_START_TRANSFER, 0, NULL);
 800293a:	4760      	bx	ip

0800293c <u8x8_cad_EndTransfer>:

uint8_t u8x8_cad_EndTransfer(u8x8_t *u8x8)
{
  return u8x8->cad_cb(u8x8, U8X8_MSG_CAD_END_TRANSFER, 0, NULL);
 800293c:	2300      	movs	r3, #0
{
 800293e:	b410      	push	{r4}
  return u8x8->cad_cb(u8x8, U8X8_MSG_CAD_END_TRANSFER, 0, NULL);
 8002940:	68c4      	ldr	r4, [r0, #12]
 8002942:	461a      	mov	r2, r3
 8002944:	46a4      	mov	ip, r4
 8002946:	2119      	movs	r1, #25
}
 8002948:	bc10      	pop	{r4}
  return u8x8->cad_cb(u8x8, U8X8_MSG_CAD_END_TRANSFER, 0, NULL);
 800294a:	4760      	bx	ip

0800294c <u8x8_cad_SendSequence>:
  254 milli	delay by milliseconds
  255		end of sequence
*/

void u8x8_cad_SendSequence(u8x8_t *u8x8, uint8_t const *data)
{
 800294c:	b573      	push	{r0, r1, r4, r5, r6, lr}
 800294e:	4605      	mov	r5, r0
 8002950:	460c      	mov	r4, r1
  uint8_t cmd;
  uint8_t v;

  for(;;)
  {
    cmd = *data;
 8002952:	7821      	ldrb	r1, [r4, #0]
    data++;
    switch( cmd )
 8002954:	2917      	cmp	r1, #23
 8002956:	d019      	beq.n	800298c <u8x8_cad_SendSequence+0x40>
 8002958:	d803      	bhi.n	8002962 <u8x8_cad_SendSequence+0x16>
 800295a:	2915      	cmp	r1, #21
 800295c:	d20d      	bcs.n	800297a <u8x8_cad_SendSequence+0x2e>
	  break;
      default:
	return;
    }
  }
}
 800295e:	b002      	add	sp, #8
 8002960:	bd70      	pop	{r4, r5, r6, pc}
    switch( cmd )
 8002962:	2919      	cmp	r1, #25
 8002964:	d91c      	bls.n	80029a0 <u8x8_cad_SendSequence+0x54>
 8002966:	29fe      	cmp	r1, #254	; 0xfe
 8002968:	d1f9      	bne.n	800295e <u8x8_cad_SendSequence+0x12>
	  v = *data;
 800296a:	7862      	ldrb	r2, [r4, #1]
	  u8x8_gpio_Delay(u8x8, U8X8_MSG_DELAY_MILLI, v);	    
 800296c:	2129      	movs	r1, #41	; 0x29
 800296e:	4628      	mov	r0, r5
	  v = *data;
 8002970:	f88d 2007 	strb.w	r2, [sp, #7]
	  u8x8_gpio_Delay(u8x8, U8X8_MSG_DELAY_MILLI, v);	    
 8002974:	f000 f942 	bl	8002bfc <u8x8_gpio_call>
 8002978:	e006      	b.n	8002988 <u8x8_cad_SendSequence+0x3c>
	  v = *data;
 800297a:	7862      	ldrb	r2, [r4, #1]
	  u8x8->cad_cb(u8x8, cmd, v, NULL);
 800297c:	68ee      	ldr	r6, [r5, #12]
	  v = *data;
 800297e:	f88d 2007 	strb.w	r2, [sp, #7]
	  u8x8->cad_cb(u8x8, cmd, v, NULL);
 8002982:	2300      	movs	r3, #0
 8002984:	4628      	mov	r0, r5
 8002986:	47b0      	blx	r6
	  data++;
 8002988:	3402      	adds	r4, #2
	  break;
 800298a:	e7e2      	b.n	8002952 <u8x8_cad_SendSequence+0x6>
	  v = *data;
 800298c:	7863      	ldrb	r3, [r4, #1]
	  u8x8_cad_SendData(u8x8, 1, &v);
 800298e:	f10d 0207 	add.w	r2, sp, #7
 8002992:	2101      	movs	r1, #1
 8002994:	4628      	mov	r0, r5
	  v = *data;
 8002996:	f88d 3007 	strb.w	r3, [sp, #7]
	  u8x8_cad_SendData(u8x8, 1, &v);
 800299a:	f7ff ffbf 	bl	800291c <u8x8_cad_SendData>
 800299e:	e7f3      	b.n	8002988 <u8x8_cad_SendSequence+0x3c>
	  u8x8->cad_cb(u8x8, cmd, 0, NULL);
 80029a0:	2300      	movs	r3, #0
 80029a2:	68ee      	ldr	r6, [r5, #12]
 80029a4:	461a      	mov	r2, r3
 80029a6:	4628      	mov	r0, r5
    data++;
 80029a8:	3401      	adds	r4, #1
	  u8x8->cad_cb(u8x8, cmd, 0, NULL);
 80029aa:	47b0      	blx	r6
	  break;
 80029ac:	e7d1      	b.n	8002952 <u8x8_cad_SendSequence+0x6>

080029ae <u8x8_cad_001>:
  convert to bytes by using 
    dc = 0 for commands and args and
    dc = 1 for data
*/
uint8_t u8x8_cad_001(u8x8_t *u8x8, uint8_t msg, uint8_t arg_int, void *arg_ptr)
{
 80029ae:	e92d 41f0 	stmdb	sp!, {r4, r5, r6, r7, r8, lr}
 80029b2:	4615      	mov	r5, r2
  switch(msg)
 80029b4:	f1a1 0214 	sub.w	r2, r1, #20
{
 80029b8:	4604      	mov	r4, r0
 80029ba:	460e      	mov	r6, r1
 80029bc:	4698      	mov	r8, r3
  switch(msg)
 80029be:	2a05      	cmp	r2, #5
 80029c0:	d81a      	bhi.n	80029f8 <u8x8_cad_001+0x4a>
 80029c2:	e8df f002 	tbb	[pc, r2]
 80029c6:	0310      	.short	0x0310
 80029c8:	10100d03 	.word	0x10100d03
    case U8X8_MSG_CAD_SEND_CMD:
      u8x8_byte_SetDC(u8x8, 0);
      u8x8_byte_SendByte(u8x8, arg_int);
      break;
    case U8X8_MSG_CAD_SEND_ARG:
      u8x8_byte_SetDC(u8x8, 0);
 80029cc:	2100      	movs	r1, #0
 80029ce:	f7ff ff7b 	bl	80028c8 <u8x8_byte_SetDC>
      u8x8_byte_SendByte(u8x8, arg_int);
 80029d2:	4629      	mov	r1, r5
 80029d4:	4620      	mov	r0, r4
 80029d6:	f7ff ff87 	bl	80028e8 <u8x8_byte_SendByte>
    case U8X8_MSG_CAD_END_TRANSFER:
      return u8x8->byte_cb(u8x8, msg, arg_int, arg_ptr);
    default:
      return 0;
  }
  return 1;
 80029da:	2001      	movs	r0, #1
      break;
 80029dc:	e8bd 81f0 	ldmia.w	sp!, {r4, r5, r6, r7, r8, pc}
      u8x8_byte_SetDC(u8x8, 1);
 80029e0:	2101      	movs	r1, #1
 80029e2:	f7ff ff71 	bl	80028c8 <u8x8_byte_SetDC>
      return u8x8->byte_cb(u8x8, msg, arg_int, arg_ptr);
 80029e6:	6927      	ldr	r7, [r4, #16]
 80029e8:	4643      	mov	r3, r8
 80029ea:	462a      	mov	r2, r5
 80029ec:	4631      	mov	r1, r6
 80029ee:	4620      	mov	r0, r4
 80029f0:	46bc      	mov	ip, r7
}
 80029f2:	e8bd 41f0 	ldmia.w	sp!, {r4, r5, r6, r7, r8, lr}
      return u8x8->byte_cb(u8x8, msg, arg_int, arg_ptr);
 80029f6:	4760      	bx	ip
      return 0;
 80029f8:	2000      	movs	r0, #0
}
 80029fa:	e8bd 81f0 	ldmia.w	sp!, {r4, r5, r6, r7, r8, pc}
	...

08002a00 <u8x8_d_st7565_common>:

uint8_t u8x8_d_st7565_common(u8x8_t *u8x8, uint8_t msg, uint8_t arg_int, void *arg_ptr)
{
  uint8_t x, c;
  uint8_t *ptr;
  switch(msg)
 8002a00:	290e      	cmp	r1, #14
{
 8002a02:	e92d 41f0 	stmdb	sp!, {r4, r5, r6, r7, r8, lr}
 8002a06:	4606      	mov	r6, r0
 8002a08:	4617      	mov	r7, r2
 8002a0a:	4698      	mov	r8, r3
  switch(msg)
 8002a0c:	d041      	beq.n	8002a92 <u8x8_d_st7565_common+0x92>
 8002a0e:	290f      	cmp	r1, #15
 8002a10:	d008      	beq.n	8002a24 <u8x8_d_st7565_common+0x24>
 8002a12:	290b      	cmp	r1, #11
 8002a14:	d148      	bne.n	8002aa8 <u8x8_d_st7565_common+0xa8>
      u8x8_d_helper_display_init(u8x8);
      u8x8_cad_SendSequence(u8x8, u8x8_d_uc1701_dogs102_init_seq);
      break;
    */
    case U8X8_MSG_DISPLAY_SET_POWER_SAVE:
      if ( arg_int == 0 )
 8002a16:	bbd2      	cbnz	r2, 8002a8e <u8x8_d_st7565_common+0x8e>
	u8x8_cad_SendSequence(u8x8, u8x8_d_st7565_powersave0_seq);
 8002a18:	4925      	ldr	r1, [pc, #148]	; (8002ab0 <u8x8_d_st7565_common+0xb0>)
      else
	u8x8_cad_SendSequence(u8x8, u8x8_d_st7565_powersave1_seq);
 8002a1a:	f7ff ff97 	bl	800294c <u8x8_cad_SendSequence>
      break;
#endif
    default:
      return 0;
  }
  return 1;
 8002a1e:	2001      	movs	r0, #1
 8002a20:	e8bd 81f0 	ldmia.w	sp!, {r4, r5, r6, r7, r8, pc}
      u8x8_cad_StartTransfer(u8x8);
 8002a24:	f7ff ff82 	bl	800292c <u8x8_cad_StartTransfer>
      x = ((u8x8_tile_t *)arg_ptr)->x_pos;
 8002a28:	f898 3005 	ldrb.w	r3, [r8, #5]
      x += u8x8->x_offset;
 8002a2c:	f896 4022 	ldrb.w	r4, [r6, #34]	; 0x22
      u8x8_cad_SendCmd(u8x8, 0x010 | (x>>4) );
 8002a30:	4630      	mov	r0, r6
      x += u8x8->x_offset;
 8002a32:	eb04 04c3 	add.w	r4, r4, r3, lsl #3
 8002a36:	f004 04ff 	and.w	r4, r4, #255	; 0xff
      u8x8_cad_SendCmd(u8x8, 0x010 | (x>>4) );
 8002a3a:	0921      	lsrs	r1, r4, #4
 8002a3c:	f041 0110 	orr.w	r1, r1, #16
 8002a40:	f7ff ff5c 	bl	80028fc <u8x8_cad_SendCmd>
      u8x8_cad_SendCmd(u8x8, 0x000 | ((x&15)));
 8002a44:	f004 010f 	and.w	r1, r4, #15
 8002a48:	4630      	mov	r0, r6
 8002a4a:	f7ff ff57 	bl	80028fc <u8x8_cad_SendCmd>
      u8x8_cad_SendCmd(u8x8, 0x0b0 | (((u8x8_tile_t *)arg_ptr)->y_pos));
 8002a4e:	f898 1006 	ldrb.w	r1, [r8, #6]
 8002a52:	4630      	mov	r0, r6
 8002a54:	f041 01b0 	orr.w	r1, r1, #176	; 0xb0
 8002a58:	f7ff ff50 	bl	80028fc <u8x8_cad_SendCmd>
      c = ((u8x8_tile_t *)arg_ptr)->cnt;
 8002a5c:	f898 5004 	ldrb.w	r5, [r8, #4]
      ptr = ((u8x8_tile_t *)arg_ptr)->tile_ptr;
 8002a60:	f8d8 8000 	ldr.w	r8, [r8]
      c *= 8;
 8002a64:	00ed      	lsls	r5, r5, #3
 8002a66:	b2ed      	uxtb	r5, r5
      if ( c + x > 132u )
 8002a68:	192b      	adds	r3, r5, r4
 8002a6a:	2b84      	cmp	r3, #132	; 0x84
	c -= x;
 8002a6c:	bfc4      	itt	gt
 8002a6e:	f1c4 0484 	rsbgt	r4, r4, #132	; 0x84
 8002a72:	b2e5      	uxtbgt	r5, r4
	u8x8_cad_SendData(u8x8, c, ptr);	/* note: SendData can not handle more than 255 bytes */
 8002a74:	4642      	mov	r2, r8
 8002a76:	4629      	mov	r1, r5
 8002a78:	4630      	mov	r0, r6
	arg_int--;
 8002a7a:	3f01      	subs	r7, #1
	u8x8_cad_SendData(u8x8, c, ptr);	/* note: SendData can not handle more than 255 bytes */
 8002a7c:	f7ff ff4e 	bl	800291c <u8x8_cad_SendData>
      } while( arg_int > 0 );
 8002a80:	f017 07ff 	ands.w	r7, r7, #255	; 0xff
 8002a84:	d1f6      	bne.n	8002a74 <u8x8_d_st7565_common+0x74>
      u8x8_cad_EndTransfer(u8x8);
 8002a86:	4630      	mov	r0, r6
 8002a88:	f7ff ff58 	bl	800293c <u8x8_cad_EndTransfer>
 8002a8c:	e7c7      	b.n	8002a1e <u8x8_d_st7565_common+0x1e>
	u8x8_cad_SendSequence(u8x8, u8x8_d_st7565_powersave1_seq);
 8002a8e:	4909      	ldr	r1, [pc, #36]	; (8002ab4 <u8x8_d_st7565_common+0xb4>)
 8002a90:	e7c3      	b.n	8002a1a <u8x8_d_st7565_common+0x1a>
      u8x8_cad_StartTransfer(u8x8);
 8002a92:	f7ff ff4b 	bl	800292c <u8x8_cad_StartTransfer>
      u8x8_cad_SendCmd(u8x8, 0x081 );
 8002a96:	2181      	movs	r1, #129	; 0x81
 8002a98:	4630      	mov	r0, r6
 8002a9a:	f7ff ff2f 	bl	80028fc <u8x8_cad_SendCmd>
      u8x8_cad_SendArg(u8x8, arg_int >> 2 );	/* st7565 has range from 0 to 63 */
 8002a9e:	08b9      	lsrs	r1, r7, #2
 8002aa0:	4630      	mov	r0, r6
 8002aa2:	f7ff ff33 	bl	800290c <u8x8_cad_SendArg>
 8002aa6:	e7ee      	b.n	8002a86 <u8x8_d_st7565_common+0x86>
      return 0;
 8002aa8:	2000      	movs	r0, #0
}
 8002aaa:	e8bd 81f0 	ldmia.w	sp!, {r4, r5, r6, r7, r8, pc}
 8002aae:	bf00      	nop
 8002ab0:	08005a5f 	.word	0x08005a5f
 8002ab4:	08005a66 	.word	0x08005a66

08002ab8 <u8x8_d_st7565_ea_dogm128>:
  U8X8_END_TRANSFER(),             	/* disable chip */
  U8X8_END()             			/* end of sequence */
};

uint8_t u8x8_d_st7565_ea_dogm128(u8x8_t *u8x8, uint8_t msg, uint8_t arg_int, void *arg_ptr)
{
 8002ab8:	b570      	push	{r4, r5, r6, lr}
 8002aba:	4604      	mov	r4, r0
 8002abc:	460d      	mov	r5, r1
 8002abe:	4616      	mov	r6, r2
  /* call common procedure first and handle messages there */
  if ( u8x8_d_st7565_common(u8x8, msg, arg_int, arg_ptr) == 0 )
 8002ac0:	f7ff ff9e 	bl	8002a00 <u8x8_d_st7565_common>
 8002ac4:	b948      	cbnz	r0, 8002ada <u8x8_d_st7565_ea_dogm128+0x22>
  {
    /* msg not handled, then try here */
    switch(msg)
 8002ac6:	2d0a      	cmp	r5, #10
 8002ac8:	d009      	beq.n	8002ade <u8x8_d_st7565_ea_dogm128+0x26>
 8002aca:	2d0d      	cmp	r5, #13
 8002acc:	d00f      	beq.n	8002aee <u8x8_d_st7565_ea_dogm128+0x36>
 8002ace:	2d09      	cmp	r5, #9
 8002ad0:	d104      	bne.n	8002adc <u8x8_d_st7565_ea_dogm128+0x24>
    {
      case U8X8_MSG_DISPLAY_SETUP_MEMORY:
	u8x8_d_helper_display_setup_memory(u8x8, &u8x8_st7565_128x64_display_info);
 8002ad2:	490f      	ldr	r1, [pc, #60]	; (8002b10 <u8x8_d_st7565_ea_dogm128+0x58>)
 8002ad4:	4620      	mov	r0, r4
 8002ad6:	f000 f823 	bl	8002b20 <u8x8_d_helper_display_setup_memory>
	break;
      default:
	return 0;		/* msg unknown */
    }
  }
  return 1;
 8002ada:	2001      	movs	r0, #1
}
 8002adc:	bd70      	pop	{r4, r5, r6, pc}
	u8x8_d_helper_display_init(u8x8);
 8002ade:	4620      	mov	r0, r4
 8002ae0:	f000 f823 	bl	8002b2a <u8x8_d_helper_display_init>
	u8x8_cad_SendSequence(u8x8, u8x8_d_st7565_dogm128_init_seq);
 8002ae4:	490b      	ldr	r1, [pc, #44]	; (8002b14 <u8x8_d_st7565_ea_dogm128+0x5c>)
 8002ae6:	4620      	mov	r0, r4
 8002ae8:	f7ff ff30 	bl	800294c <u8x8_cad_SendSequence>
 8002aec:	e7f5      	b.n	8002ada <u8x8_d_st7565_ea_dogm128+0x22>
	if ( arg_int == 0 )
 8002aee:	b946      	cbnz	r6, 8002b02 <u8x8_d_st7565_ea_dogm128+0x4a>
	  u8x8_cad_SendSequence(u8x8, u8x8_d_st7565_flip0_seq);
 8002af0:	4909      	ldr	r1, [pc, #36]	; (8002b18 <u8x8_d_st7565_ea_dogm128+0x60>)
 8002af2:	4620      	mov	r0, r4
 8002af4:	f7ff ff2a 	bl	800294c <u8x8_cad_SendSequence>
	  u8x8->x_offset = u8x8->display_info->default_x_offset;
 8002af8:	6823      	ldr	r3, [r4, #0]
 8002afa:	7c9b      	ldrb	r3, [r3, #18]
	  u8x8->x_offset = u8x8->display_info->flipmode_x_offset;
 8002afc:	f884 3022 	strb.w	r3, [r4, #34]	; 0x22
 8002b00:	e7eb      	b.n	8002ada <u8x8_d_st7565_ea_dogm128+0x22>
	  u8x8_cad_SendSequence(u8x8, u8x8_d_st7565_flip1_seq);
 8002b02:	4906      	ldr	r1, [pc, #24]	; (8002b1c <u8x8_d_st7565_ea_dogm128+0x64>)
 8002b04:	4620      	mov	r0, r4
 8002b06:	f7ff ff21 	bl	800294c <u8x8_cad_SendSequence>
	  u8x8->x_offset = u8x8->display_info->flipmode_x_offset;
 8002b0a:	6823      	ldr	r3, [r4, #0]
 8002b0c:	7cdb      	ldrb	r3, [r3, #19]
 8002b0e:	e7f5      	b.n	8002afc <u8x8_d_st7565_ea_dogm128+0x44>
 8002b10:	08005a70 	.word	0x08005a70
 8002b14:	08005a30 	.word	0x08005a30
 8002b18:	08005a51 	.word	0x08005a51
 8002b1c:	08005a58 	.word	0x08005a58

08002b20 <u8x8_d_helper_display_setup_memory>:
  
*/
void u8x8_d_helper_display_setup_memory(u8x8_t *u8x8, const u8x8_display_info_t *display_info)
{
      /* 1) set display info struct */
      u8x8->display_info = display_info;
 8002b20:	6001      	str	r1, [r0, #0]
      u8x8->x_offset = u8x8->display_info->default_x_offset;
 8002b22:	7c8b      	ldrb	r3, [r1, #18]
 8002b24:	f880 3022 	strb.w	r3, [r0, #34]	; 0x22
 8002b28:	4770      	bx	lr

08002b2a <u8x8_d_helper_display_init>:
  this is a helper function for the U8X8_MSG_DISPLAY_INIT function.
  It can be called within the display callback function to carry out the usual standard tasks.
  
*/
void u8x8_d_helper_display_init(u8x8_t *u8x8)
{
 8002b2a:	b538      	push	{r3, r4, r5, lr}
      /* 2) apply port directions to the GPIO lines and apply default values for the IO lines*/
      u8x8_gpio_Init(u8x8);
 8002b2c:	2300      	movs	r3, #0
 8002b2e:	6945      	ldr	r5, [r0, #20]
 8002b30:	461a      	mov	r2, r3
 8002b32:	2128      	movs	r1, #40	; 0x28
{
 8002b34:	4604      	mov	r4, r0
      u8x8_gpio_Init(u8x8);
 8002b36:	47a8      	blx	r5
      u8x8_cad_Init(u8x8);
 8002b38:	2300      	movs	r3, #0
 8002b3a:	68e5      	ldr	r5, [r4, #12]
 8002b3c:	461a      	mov	r2, r3
 8002b3e:	2114      	movs	r1, #20
 8002b40:	4620      	mov	r0, r4
 8002b42:	47a8      	blx	r5

      /* 3) do reset */
      u8x8_gpio_SetReset(u8x8, 1);
 8002b44:	4620      	mov	r0, r4
 8002b46:	2201      	movs	r2, #1
 8002b48:	214b      	movs	r1, #75	; 0x4b
 8002b4a:	f000 f857 	bl	8002bfc <u8x8_gpio_call>
      u8x8_gpio_Delay(u8x8, U8X8_MSG_DELAY_MILLI, u8x8->display_info->reset_pulse_width_ms);
 8002b4e:	6823      	ldr	r3, [r4, #0]
 8002b50:	4620      	mov	r0, r4
 8002b52:	791a      	ldrb	r2, [r3, #4]
 8002b54:	2129      	movs	r1, #41	; 0x29
 8002b56:	f000 f851 	bl	8002bfc <u8x8_gpio_call>
      u8x8_gpio_SetReset(u8x8, 0);
 8002b5a:	4620      	mov	r0, r4
 8002b5c:	2200      	movs	r2, #0
 8002b5e:	214b      	movs	r1, #75	; 0x4b
 8002b60:	f000 f84c 	bl	8002bfc <u8x8_gpio_call>
      u8x8_gpio_Delay(u8x8, U8X8_MSG_DELAY_MILLI, u8x8->display_info->reset_pulse_width_ms);
 8002b64:	6823      	ldr	r3, [r4, #0]
 8002b66:	4620      	mov	r0, r4
 8002b68:	791a      	ldrb	r2, [r3, #4]
 8002b6a:	2129      	movs	r1, #41	; 0x29
 8002b6c:	f000 f846 	bl	8002bfc <u8x8_gpio_call>
      u8x8_gpio_SetReset(u8x8, 1);
 8002b70:	4620      	mov	r0, r4
 8002b72:	2201      	movs	r2, #1
 8002b74:	214b      	movs	r1, #75	; 0x4b
 8002b76:	f000 f841 	bl	8002bfc <u8x8_gpio_call>
      u8x8_gpio_Delay(u8x8, U8X8_MSG_DELAY_MILLI, u8x8->display_info->post_reset_wait_ms);
 8002b7a:	6823      	ldr	r3, [r4, #0]
 8002b7c:	4620      	mov	r0, r4
 8002b7e:	795a      	ldrb	r2, [r3, #5]
 8002b80:	2129      	movs	r1, #41	; 0x29
}    
 8002b82:	e8bd 4038 	ldmia.w	sp!, {r3, r4, r5, lr}
      u8x8_gpio_Delay(u8x8, U8X8_MSG_DELAY_MILLI, u8x8->display_info->post_reset_wait_ms);
 8002b86:	f000 b839 	b.w	8002bfc <u8x8_gpio_call>

08002b8a <u8x8_DrawTile>:

/*==========================================*/
/* official functions */

uint8_t u8x8_DrawTile(u8x8_t *u8x8, uint8_t x, uint8_t y, uint8_t cnt, uint8_t *tile_ptr)
{
 8002b8a:	b513      	push	{r0, r1, r4, lr}
  u8x8_tile_t tile;
  tile.x_pos = x;
  tile.y_pos = y;
 8002b8c:	f88d 2006 	strb.w	r2, [sp, #6]
  tile.cnt = cnt;
  tile.tile_ptr = tile_ptr;
 8002b90:	9a04      	ldr	r2, [sp, #16]
  tile.cnt = cnt;
 8002b92:	f88d 3004 	strb.w	r3, [sp, #4]
  tile.tile_ptr = tile_ptr;
 8002b96:	ab02      	add	r3, sp, #8
  tile.x_pos = x;
 8002b98:	f88d 1005 	strb.w	r1, [sp, #5]
  tile.tile_ptr = tile_ptr;
 8002b9c:	f843 2d08 	str.w	r2, [r3, #-8]!
  return u8x8->display_cb(u8x8, U8X8_MSG_DISPLAY_DRAW_TILE, 1, (void *)&tile);
 8002ba0:	6884      	ldr	r4, [r0, #8]
 8002ba2:	2201      	movs	r2, #1
 8002ba4:	210f      	movs	r1, #15
 8002ba6:	47a0      	blx	r4
}
 8002ba8:	b002      	add	sp, #8
 8002baa:	bd10      	pop	{r4, pc}

08002bac <u8x8_SetupMemory>:

/* should be implemented as macro */
void u8x8_SetupMemory(u8x8_t *u8x8)
{
  u8x8->display_cb(u8x8, U8X8_MSG_DISPLAY_SETUP_MEMORY, 0, NULL);  
 8002bac:	2300      	movs	r3, #0
{
 8002bae:	b410      	push	{r4}
  u8x8->display_cb(u8x8, U8X8_MSG_DISPLAY_SETUP_MEMORY, 0, NULL);  
 8002bb0:	6884      	ldr	r4, [r0, #8]
 8002bb2:	461a      	mov	r2, r3
 8002bb4:	46a4      	mov	ip, r4
 8002bb6:	2109      	movs	r1, #9
}
 8002bb8:	bc10      	pop	{r4}
  u8x8->display_cb(u8x8, U8X8_MSG_DISPLAY_SETUP_MEMORY, 0, NULL);  
 8002bba:	4760      	bx	ip

08002bbc <u8x8_InitDisplay>:

void u8x8_InitDisplay(u8x8_t *u8x8)
{
  u8x8->display_cb(u8x8, U8X8_MSG_DISPLAY_INIT, 0, NULL);  
 8002bbc:	2300      	movs	r3, #0
{
 8002bbe:	b410      	push	{r4}
  u8x8->display_cb(u8x8, U8X8_MSG_DISPLAY_INIT, 0, NULL);  
 8002bc0:	6884      	ldr	r4, [r0, #8]
 8002bc2:	461a      	mov	r2, r3
 8002bc4:	46a4      	mov	ip, r4
 8002bc6:	210a      	movs	r1, #10
}
 8002bc8:	bc10      	pop	{r4}
  u8x8->display_cb(u8x8, U8X8_MSG_DISPLAY_INIT, 0, NULL);  
 8002bca:	4760      	bx	ip

08002bcc <u8x8_SetPowerSave>:

void u8x8_SetPowerSave(u8x8_t *u8x8, uint8_t is_enable)
{
 8002bcc:	b410      	push	{r4}
  u8x8->display_cb(u8x8, U8X8_MSG_DISPLAY_SET_POWER_SAVE, is_enable, NULL);  
 8002bce:	6884      	ldr	r4, [r0, #8]
 8002bd0:	460a      	mov	r2, r1
 8002bd2:	46a4      	mov	ip, r4
 8002bd4:	2300      	movs	r3, #0
 8002bd6:	210b      	movs	r1, #11
}
 8002bd8:	bc10      	pop	{r4}
  u8x8->display_cb(u8x8, U8X8_MSG_DISPLAY_SET_POWER_SAVE, is_enable, NULL);  
 8002bda:	4760      	bx	ip

08002bdc <u8x8_SetContrast>:
{
  u8x8->display_cb(u8x8, U8X8_MSG_DISPLAY_SET_FLIP_MODE, mode, NULL);  
}

void u8x8_SetContrast(u8x8_t *u8x8, uint8_t value)
{
 8002bdc:	b410      	push	{r4}
  u8x8->display_cb(u8x8, U8X8_MSG_DISPLAY_SET_CONTRAST, value, NULL);  
 8002bde:	6884      	ldr	r4, [r0, #8]
 8002be0:	460a      	mov	r2, r1
 8002be2:	46a4      	mov	ip, r4
 8002be4:	2300      	movs	r3, #0
 8002be6:	210e      	movs	r1, #14
}
 8002be8:	bc10      	pop	{r4}
  u8x8->display_cb(u8x8, U8X8_MSG_DISPLAY_SET_CONTRAST, value, NULL);  
 8002bea:	4760      	bx	ip

08002bec <u8x8_RefreshDisplay>:

void u8x8_RefreshDisplay(u8x8_t *u8x8)
{
  u8x8->display_cb(u8x8, U8X8_MSG_DISPLAY_REFRESH, 0, NULL);  
 8002bec:	2300      	movs	r3, #0
{
 8002bee:	b410      	push	{r4}
  u8x8->display_cb(u8x8, U8X8_MSG_DISPLAY_REFRESH, 0, NULL);  
 8002bf0:	6884      	ldr	r4, [r0, #8]
 8002bf2:	461a      	mov	r2, r3
 8002bf4:	46a4      	mov	ip, r4
 8002bf6:	2110      	movs	r1, #16
}
 8002bf8:	bc10      	pop	{r4}
  u8x8->display_cb(u8x8, U8X8_MSG_DISPLAY_REFRESH, 0, NULL);  
 8002bfa:	4760      	bx	ip

08002bfc <u8x8_gpio_call>:

#include "u8x8.h"


void u8x8_gpio_call(u8x8_t *u8x8, uint8_t msg, uint8_t arg)
{
 8002bfc:	b410      	push	{r4}
  u8x8->gpio_and_delay_cb(u8x8, msg, arg, NULL);
 8002bfe:	6944      	ldr	r4, [r0, #20]
 8002c00:	2300      	movs	r3, #0
 8002c02:	46a4      	mov	ip, r4
}
 8002c04:	bc10      	pop	{r4}
  u8x8->gpio_and_delay_cb(u8x8, msg, arg, NULL);
 8002c06:	4760      	bx	ip

08002c08 <u8x8_dummy_cb>:
/* universal dummy callback, which will be default for all callbacks */
uint8_t u8x8_dummy_cb(U8X8_UNUSED u8x8_t *u8x8, U8X8_UNUSED uint8_t msg, U8X8_UNUSED uint8_t arg_int, U8X8_UNUSED void *arg_ptr)
{
  /* the dummy callback will not handle any message and will fail for all messages */
  return 0;
}
 8002c08:	2000      	movs	r0, #0
 8002c0a:	4770      	bx	lr

08002c0c <u8x8_SetupDefaults>:
  Args:
    u8x8	An empty u8x8 structure
*/
void u8x8_SetupDefaults(u8x8_t *u8x8)
{
    u8x8->display_info = NULL;
 8002c0c:	2300      	movs	r3, #0
 8002c0e:	6003      	str	r3, [r0, #0]
    u8x8->display_cb = u8x8_dummy_cb;
    u8x8->cad_cb = u8x8_dummy_cb;
    u8x8->byte_cb = u8x8_dummy_cb;
    u8x8->gpio_and_delay_cb = u8x8_dummy_cb;
    u8x8->is_font_inverse_mode = 0;
 8002c10:	f880 3023 	strb.w	r3, [r0, #35]	; 0x23
    //u8x8->device_address = 0;
    u8x8->utf8_state = 0;		/* also reset by u8x8_utf8_init */
 8002c14:	f880 3026 	strb.w	r3, [r0, #38]	; 0x26
    u8x8->bus_clock = 0;		/* issue 769 */
 8002c18:	6183      	str	r3, [r0, #24]
    u8x8->i2c_address = 255;
 8002c1a:	23ff      	movs	r3, #255	; 0xff
    u8x8->display_cb = u8x8_dummy_cb;
 8002c1c:	4a04      	ldr	r2, [pc, #16]	; (8002c30 <u8x8_SetupDefaults+0x24>)
    u8x8->i2c_address = 255;
 8002c1e:	f880 3024 	strb.w	r3, [r0, #36]	; 0x24
    u8x8->display_cb = u8x8_dummy_cb;
 8002c22:	6082      	str	r2, [r0, #8]
    u8x8->cad_cb = u8x8_dummy_cb;
 8002c24:	60c2      	str	r2, [r0, #12]
    u8x8->byte_cb = u8x8_dummy_cb;
 8002c26:	6102      	str	r2, [r0, #16]
    u8x8->gpio_and_delay_cb = u8x8_dummy_cb;
 8002c28:	6142      	str	r2, [r0, #20]
    u8x8->debounce_default_pin_state = 255;	/* assume all low active buttons */
 8002c2a:	f880 3028 	strb.w	r3, [r0, #40]	; 0x28
 8002c2e:	4770      	bx	lr
 8002c30:	08002c09 	.word	0x08002c09

08002c34 <u8x8_Setup>:
    byte_cb			Display controller/communication specific callback funtion
    gpio_and_delay_cb	Environment specific callback function

*/
void u8x8_Setup(u8x8_t *u8x8, u8x8_msg_cb display_cb, u8x8_msg_cb cad_cb, u8x8_msg_cb byte_cb, u8x8_msg_cb gpio_and_delay_cb)
{
 8002c34:	b5f8      	push	{r3, r4, r5, r6, r7, lr}
 8002c36:	9d06      	ldr	r5, [sp, #24]
 8002c38:	4617      	mov	r7, r2
 8002c3a:	461e      	mov	r6, r3
  /* setup defaults and reset pins to U8X8_PIN_NONE */
  u8x8_SetupDefaults(u8x8);
 8002c3c:	f7ff ffe6 	bl	8002c0c <u8x8_SetupDefaults>

  /* setup specific callbacks */
  u8x8->display_cb = display_cb;
  u8x8->cad_cb = cad_cb;
 8002c40:	60c7      	str	r7, [r0, #12]
  u8x8->byte_cb = byte_cb;
 8002c42:	6106      	str	r6, [r0, #16]
  u8x8->gpio_and_delay_cb = gpio_and_delay_cb;
 8002c44:	6145      	str	r5, [r0, #20]
  u8x8->display_cb = display_cb;
 8002c46:	6081      	str	r1, [r0, #8]

  /* setup display info */
  u8x8_SetupMemory(u8x8);
}
 8002c48:	e8bd 40f8 	ldmia.w	sp!, {r3, r4, r5, r6, r7, lr}
  u8x8_SetupMemory(u8x8);
 8002c4c:	f7ff bfae 	b.w	8002bac <u8x8_SetupMemory>

08002c50 <Reset_Handler>:
  .weak Reset_Handler
  .type Reset_Handler, %function
Reset_Handler:

/* Copy the data segment initializers from flash to SRAM */
  movs r1, #0
 8002c50:	2100      	movs	r1, #0
  b LoopCopyDataInit
 8002c52:	e003      	b.n	8002c5c <LoopCopyDataInit>

08002c54 <CopyDataInit>:

CopyDataInit:
  ldr r3, =_sidata
 8002c54:	4b0b      	ldr	r3, [pc, #44]	; (8002c84 <LoopFillZerobss+0x14>)
  ldr r3, [r3, r1]
 8002c56:	585b      	ldr	r3, [r3, r1]
  str r3, [r0, r1]
 8002c58:	5043      	str	r3, [r0, r1]
  adds r1, r1, #4
 8002c5a:	3104      	adds	r1, #4

08002c5c <LoopCopyDataInit>:

LoopCopyDataInit:
  ldr r0, =_sdata
 8002c5c:	480a      	ldr	r0, [pc, #40]	; (8002c88 <LoopFillZerobss+0x18>)
  ldr r3, =_edata
 8002c5e:	4b0b      	ldr	r3, [pc, #44]	; (8002c8c <LoopFillZerobss+0x1c>)
  adds r2, r0, r1
 8002c60:	1842      	adds	r2, r0, r1
  cmp r2, r3
 8002c62:	429a      	cmp	r2, r3
  bcc CopyDataInit
 8002c64:	d3f6      	bcc.n	8002c54 <CopyDataInit>
  ldr r2, =_sbss
 8002c66:	4a0a      	ldr	r2, [pc, #40]	; (8002c90 <LoopFillZerobss+0x20>)
  b LoopFillZerobss
 8002c68:	e002      	b.n	8002c70 <LoopFillZerobss>

08002c6a <FillZerobss>:
/* Zero fill the bss segment. */
FillZerobss:
  movs r3, #0
 8002c6a:	2300      	movs	r3, #0
  str r3, [r2], #4
 8002c6c:	f842 3b04 	str.w	r3, [r2], #4

08002c70 <LoopFillZerobss>:

LoopFillZerobss:
  ldr r3, = _ebss
 8002c70:	4b08      	ldr	r3, [pc, #32]	; (8002c94 <LoopFillZerobss+0x24>)
  cmp r2, r3
 8002c72:	429a      	cmp	r2, r3
  bcc FillZerobss
 8002c74:	d3f9      	bcc.n	8002c6a <FillZerobss>

/* Call the clock system intitialization function.*/
    bl  SystemInit
 8002c76:	f7ff f949 	bl	8001f0c <SystemInit>
/* Call static constructors */
    bl __libc_init_array
 8002c7a:	f000 f815 	bl	8002ca8 <__libc_init_array>
/* Call the application's entry point.*/
  bl main
 8002c7e:	f7fe fdd1 	bl	8001824 <main>
  bx lr
 8002c82:	4770      	bx	lr
  ldr r3, =_sidata
 8002c84:	08005b28 	.word	0x08005b28
  ldr r0, =_sdata
 8002c88:	20000000 	.word	0x20000000
  ldr r3, =_edata
 8002c8c:	20000070 	.word	0x20000070
  ldr r2, =_sbss
 8002c90:	20000070 	.word	0x20000070
  ldr r3, = _ebss
 8002c94:	20000384 	.word	0x20000384

08002c98 <ADC1_2_IRQHandler>:
 * @retval : None
*/
    .section .text.Default_Handler,"ax",%progbits
Default_Handler:
Infinite_Loop:
  b Infinite_Loop
 8002c98:	e7fe      	b.n	8002c98 <ADC1_2_IRQHandler>
	...

08002c9c <__errno>:
 8002c9c:	4b01      	ldr	r3, [pc, #4]	; (8002ca4 <__errno+0x8>)
 8002c9e:	6818      	ldr	r0, [r3, #0]
 8002ca0:	4770      	bx	lr
 8002ca2:	bf00      	nop
 8002ca4:	2000000c 	.word	0x2000000c

08002ca8 <__libc_init_array>:
 8002ca8:	b570      	push	{r4, r5, r6, lr}
 8002caa:	2500      	movs	r5, #0
 8002cac:	4e0c      	ldr	r6, [pc, #48]	; (8002ce0 <__libc_init_array+0x38>)
 8002cae:	4c0d      	ldr	r4, [pc, #52]	; (8002ce4 <__libc_init_array+0x3c>)
 8002cb0:	1ba4      	subs	r4, r4, r6
 8002cb2:	10a4      	asrs	r4, r4, #2
 8002cb4:	42a5      	cmp	r5, r4
 8002cb6:	d109      	bne.n	8002ccc <__libc_init_array+0x24>
 8002cb8:	f001 f806 	bl	8003cc8 <_init>
 8002cbc:	2500      	movs	r5, #0
 8002cbe:	4e0a      	ldr	r6, [pc, #40]	; (8002ce8 <__libc_init_array+0x40>)
 8002cc0:	4c0a      	ldr	r4, [pc, #40]	; (8002cec <__libc_init_array+0x44>)
 8002cc2:	1ba4      	subs	r4, r4, r6
 8002cc4:	10a4      	asrs	r4, r4, #2
 8002cc6:	42a5      	cmp	r5, r4
 8002cc8:	d105      	bne.n	8002cd6 <__libc_init_array+0x2e>
 8002cca:	bd70      	pop	{r4, r5, r6, pc}
 8002ccc:	f856 3025 	ldr.w	r3, [r6, r5, lsl #2]
 8002cd0:	4798      	blx	r3
 8002cd2:	3501      	adds	r5, #1
 8002cd4:	e7ee      	b.n	8002cb4 <__libc_init_array+0xc>
 8002cd6:	f856 3025 	ldr.w	r3, [r6, r5, lsl #2]
 8002cda:	4798      	blx	r3
 8002cdc:	3501      	adds	r5, #1
 8002cde:	e7f2      	b.n	8002cc6 <__libc_init_array+0x1e>
 8002ce0:	08005b20 	.word	0x08005b20
 8002ce4:	08005b20 	.word	0x08005b20
 8002ce8:	08005b20 	.word	0x08005b20
 8002cec:	08005b24 	.word	0x08005b24

08002cf0 <memset>:
 8002cf0:	4603      	mov	r3, r0
 8002cf2:	4402      	add	r2, r0
 8002cf4:	4293      	cmp	r3, r2
 8002cf6:	d100      	bne.n	8002cfa <memset+0xa>
 8002cf8:	4770      	bx	lr
 8002cfa:	f803 1b01 	strb.w	r1, [r3], #1
 8002cfe:	e7f9      	b.n	8002cf4 <memset+0x4>

08002d00 <_puts_r>:
 8002d00:	b570      	push	{r4, r5, r6, lr}
 8002d02:	460e      	mov	r6, r1
 8002d04:	4605      	mov	r5, r0
 8002d06:	b118      	cbz	r0, 8002d10 <_puts_r+0x10>
 8002d08:	6983      	ldr	r3, [r0, #24]
 8002d0a:	b90b      	cbnz	r3, 8002d10 <_puts_r+0x10>
 8002d0c:	f000 fa3a 	bl	8003184 <__sinit>
 8002d10:	69ab      	ldr	r3, [r5, #24]
 8002d12:	68ac      	ldr	r4, [r5, #8]
 8002d14:	b913      	cbnz	r3, 8002d1c <_puts_r+0x1c>
 8002d16:	4628      	mov	r0, r5
 8002d18:	f000 fa34 	bl	8003184 <__sinit>
 8002d1c:	4b23      	ldr	r3, [pc, #140]	; (8002dac <_puts_r+0xac>)
 8002d1e:	429c      	cmp	r4, r3
 8002d20:	d117      	bne.n	8002d52 <_puts_r+0x52>
 8002d22:	686c      	ldr	r4, [r5, #4]
 8002d24:	89a3      	ldrh	r3, [r4, #12]
 8002d26:	071b      	lsls	r3, r3, #28
 8002d28:	d51d      	bpl.n	8002d66 <_puts_r+0x66>
 8002d2a:	6923      	ldr	r3, [r4, #16]
 8002d2c:	b1db      	cbz	r3, 8002d66 <_puts_r+0x66>
 8002d2e:	3e01      	subs	r6, #1
 8002d30:	68a3      	ldr	r3, [r4, #8]
 8002d32:	f816 1f01 	ldrb.w	r1, [r6, #1]!
 8002d36:	3b01      	subs	r3, #1
 8002d38:	60a3      	str	r3, [r4, #8]
 8002d3a:	b9e9      	cbnz	r1, 8002d78 <_puts_r+0x78>
 8002d3c:	2b00      	cmp	r3, #0
 8002d3e:	da2e      	bge.n	8002d9e <_puts_r+0x9e>
 8002d40:	4622      	mov	r2, r4
 8002d42:	210a      	movs	r1, #10
 8002d44:	4628      	mov	r0, r5
 8002d46:	f000 f86b 	bl	8002e20 <__swbuf_r>
 8002d4a:	3001      	adds	r0, #1
 8002d4c:	d011      	beq.n	8002d72 <_puts_r+0x72>
 8002d4e:	200a      	movs	r0, #10
 8002d50:	bd70      	pop	{r4, r5, r6, pc}
 8002d52:	4b17      	ldr	r3, [pc, #92]	; (8002db0 <_puts_r+0xb0>)
 8002d54:	429c      	cmp	r4, r3
 8002d56:	d101      	bne.n	8002d5c <_puts_r+0x5c>
 8002d58:	68ac      	ldr	r4, [r5, #8]
 8002d5a:	e7e3      	b.n	8002d24 <_puts_r+0x24>
 8002d5c:	4b15      	ldr	r3, [pc, #84]	; (8002db4 <_puts_r+0xb4>)
 8002d5e:	429c      	cmp	r4, r3
 8002d60:	bf08      	it	eq
 8002d62:	68ec      	ldreq	r4, [r5, #12]
 8002d64:	e7de      	b.n	8002d24 <_puts_r+0x24>
 8002d66:	4621      	mov	r1, r4
 8002d68:	4628      	mov	r0, r5
 8002d6a:	f000 f8ab 	bl	8002ec4 <__swsetup_r>
 8002d6e:	2800      	cmp	r0, #0
 8002d70:	d0dd      	beq.n	8002d2e <_puts_r+0x2e>
 8002d72:	f04f 30ff 	mov.w	r0, #4294967295	; 0xffffffff
 8002d76:	bd70      	pop	{r4, r5, r6, pc}
 8002d78:	2b00      	cmp	r3, #0
 8002d7a:	da04      	bge.n	8002d86 <_puts_r+0x86>
 8002d7c:	69a2      	ldr	r2, [r4, #24]
 8002d7e:	4293      	cmp	r3, r2
 8002d80:	db06      	blt.n	8002d90 <_puts_r+0x90>
 8002d82:	290a      	cmp	r1, #10
 8002d84:	d004      	beq.n	8002d90 <_puts_r+0x90>
 8002d86:	6823      	ldr	r3, [r4, #0]
 8002d88:	1c5a      	adds	r2, r3, #1
 8002d8a:	6022      	str	r2, [r4, #0]
 8002d8c:	7019      	strb	r1, [r3, #0]
 8002d8e:	e7cf      	b.n	8002d30 <_puts_r+0x30>
 8002d90:	4622      	mov	r2, r4
 8002d92:	4628      	mov	r0, r5
 8002d94:	f000 f844 	bl	8002e20 <__swbuf_r>
 8002d98:	3001      	adds	r0, #1
 8002d9a:	d1c9      	bne.n	8002d30 <_puts_r+0x30>
 8002d9c:	e7e9      	b.n	8002d72 <_puts_r+0x72>
 8002d9e:	200a      	movs	r0, #10
 8002da0:	6823      	ldr	r3, [r4, #0]
 8002da2:	1c5a      	adds	r2, r3, #1
 8002da4:	6022      	str	r2, [r4, #0]
 8002da6:	7018      	strb	r0, [r3, #0]
 8002da8:	bd70      	pop	{r4, r5, r6, pc}
 8002daa:	bf00      	nop
 8002dac:	08005aac 	.word	0x08005aac
 8002db0:	08005acc 	.word	0x08005acc
 8002db4:	08005a8c 	.word	0x08005a8c

08002db8 <puts>:
 8002db8:	4b02      	ldr	r3, [pc, #8]	; (8002dc4 <puts+0xc>)
 8002dba:	4601      	mov	r1, r0
 8002dbc:	6818      	ldr	r0, [r3, #0]
 8002dbe:	f7ff bf9f 	b.w	8002d00 <_puts_r>
 8002dc2:	bf00      	nop
 8002dc4:	2000000c 	.word	0x2000000c

08002dc8 <siprintf>:
 8002dc8:	b40e      	push	{r1, r2, r3}
 8002dca:	f44f 7102 	mov.w	r1, #520	; 0x208
 8002dce:	b500      	push	{lr}
 8002dd0:	b09c      	sub	sp, #112	; 0x70
 8002dd2:	f8ad 1014 	strh.w	r1, [sp, #20]
 8002dd6:	f06f 4100 	mvn.w	r1, #2147483648	; 0x80000000
 8002dda:	9104      	str	r1, [sp, #16]
 8002ddc:	9107      	str	r1, [sp, #28]
 8002dde:	f64f 71ff 	movw	r1, #65535	; 0xffff
 8002de2:	ab1d      	add	r3, sp, #116	; 0x74
 8002de4:	9002      	str	r0, [sp, #8]
 8002de6:	9006      	str	r0, [sp, #24]
 8002de8:	4808      	ldr	r0, [pc, #32]	; (8002e0c <siprintf+0x44>)
 8002dea:	f853 2b04 	ldr.w	r2, [r3], #4
 8002dee:	f8ad 1016 	strh.w	r1, [sp, #22]
 8002df2:	6800      	ldr	r0, [r0, #0]
 8002df4:	a902      	add	r1, sp, #8
 8002df6:	9301      	str	r3, [sp, #4]
 8002df8:	f000 fbb8 	bl	800356c <_svfiprintf_r>
 8002dfc:	2200      	movs	r2, #0
 8002dfe:	9b02      	ldr	r3, [sp, #8]
 8002e00:	701a      	strb	r2, [r3, #0]
 8002e02:	b01c      	add	sp, #112	; 0x70
 8002e04:	f85d eb04 	ldr.w	lr, [sp], #4
 8002e08:	b003      	add	sp, #12
 8002e0a:	4770      	bx	lr
 8002e0c:	2000000c 	.word	0x2000000c

08002e10 <strcpy>:
 8002e10:	4603      	mov	r3, r0
 8002e12:	f811 2b01 	ldrb.w	r2, [r1], #1
 8002e16:	f803 2b01 	strb.w	r2, [r3], #1
 8002e1a:	2a00      	cmp	r2, #0
 8002e1c:	d1f9      	bne.n	8002e12 <strcpy+0x2>
 8002e1e:	4770      	bx	lr

08002e20 <__swbuf_r>:
 8002e20:	b5f8      	push	{r3, r4, r5, r6, r7, lr}
 8002e22:	460e      	mov	r6, r1
 8002e24:	4614      	mov	r4, r2
 8002e26:	4605      	mov	r5, r0
 8002e28:	b118      	cbz	r0, 8002e32 <__swbuf_r+0x12>
 8002e2a:	6983      	ldr	r3, [r0, #24]
 8002e2c:	b90b      	cbnz	r3, 8002e32 <__swbuf_r+0x12>
 8002e2e:	f000 f9a9 	bl	8003184 <__sinit>
 8002e32:	4b21      	ldr	r3, [pc, #132]	; (8002eb8 <__swbuf_r+0x98>)
 8002e34:	429c      	cmp	r4, r3
 8002e36:	d12a      	bne.n	8002e8e <__swbuf_r+0x6e>
 8002e38:	686c      	ldr	r4, [r5, #4]
 8002e3a:	69a3      	ldr	r3, [r4, #24]
 8002e3c:	60a3      	str	r3, [r4, #8]
 8002e3e:	89a3      	ldrh	r3, [r4, #12]
 8002e40:	071a      	lsls	r2, r3, #28
 8002e42:	d52e      	bpl.n	8002ea2 <__swbuf_r+0x82>
 8002e44:	6923      	ldr	r3, [r4, #16]
 8002e46:	b363      	cbz	r3, 8002ea2 <__swbuf_r+0x82>
 8002e48:	6923      	ldr	r3, [r4, #16]
 8002e4a:	6820      	ldr	r0, [r4, #0]
 8002e4c:	b2f6      	uxtb	r6, r6
 8002e4e:	1ac0      	subs	r0, r0, r3
 8002e50:	6963      	ldr	r3, [r4, #20]
 8002e52:	4637      	mov	r7, r6
 8002e54:	4298      	cmp	r0, r3
 8002e56:	db04      	blt.n	8002e62 <__swbuf_r+0x42>
 8002e58:	4621      	mov	r1, r4
 8002e5a:	4628      	mov	r0, r5
 8002e5c:	f000 f928 	bl	80030b0 <_fflush_r>
 8002e60:	bb28      	cbnz	r0, 8002eae <__swbuf_r+0x8e>
 8002e62:	68a3      	ldr	r3, [r4, #8]
 8002e64:	3001      	adds	r0, #1
 8002e66:	3b01      	subs	r3, #1
 8002e68:	60a3      	str	r3, [r4, #8]
 8002e6a:	6823      	ldr	r3, [r4, #0]
 8002e6c:	1c5a      	adds	r2, r3, #1
 8002e6e:	6022      	str	r2, [r4, #0]
 8002e70:	701e      	strb	r6, [r3, #0]
 8002e72:	6963      	ldr	r3, [r4, #20]
 8002e74:	4298      	cmp	r0, r3
 8002e76:	d004      	beq.n	8002e82 <__swbuf_r+0x62>
 8002e78:	89a3      	ldrh	r3, [r4, #12]
 8002e7a:	07db      	lsls	r3, r3, #31
 8002e7c:	d519      	bpl.n	8002eb2 <__swbuf_r+0x92>
 8002e7e:	2e0a      	cmp	r6, #10
 8002e80:	d117      	bne.n	8002eb2 <__swbuf_r+0x92>
 8002e82:	4621      	mov	r1, r4
 8002e84:	4628      	mov	r0, r5
 8002e86:	f000 f913 	bl	80030b0 <_fflush_r>
 8002e8a:	b190      	cbz	r0, 8002eb2 <__swbuf_r+0x92>
 8002e8c:	e00f      	b.n	8002eae <__swbuf_r+0x8e>
 8002e8e:	4b0b      	ldr	r3, [pc, #44]	; (8002ebc <__swbuf_r+0x9c>)
 8002e90:	429c      	cmp	r4, r3
 8002e92:	d101      	bne.n	8002e98 <__swbuf_r+0x78>
 8002e94:	68ac      	ldr	r4, [r5, #8]
 8002e96:	e7d0      	b.n	8002e3a <__swbuf_r+0x1a>
 8002e98:	4b09      	ldr	r3, [pc, #36]	; (8002ec0 <__swbuf_r+0xa0>)
 8002e9a:	429c      	cmp	r4, r3
 8002e9c:	bf08      	it	eq
 8002e9e:	68ec      	ldreq	r4, [r5, #12]
 8002ea0:	e7cb      	b.n	8002e3a <__swbuf_r+0x1a>
 8002ea2:	4621      	mov	r1, r4
 8002ea4:	4628      	mov	r0, r5
 8002ea6:	f000 f80d 	bl	8002ec4 <__swsetup_r>
 8002eaa:	2800      	cmp	r0, #0
 8002eac:	d0cc      	beq.n	8002e48 <__swbuf_r+0x28>
 8002eae:	f04f 37ff 	mov.w	r7, #4294967295	; 0xffffffff
 8002eb2:	4638      	mov	r0, r7
 8002eb4:	bdf8      	pop	{r3, r4, r5, r6, r7, pc}
 8002eb6:	bf00      	nop
 8002eb8:	08005aac 	.word	0x08005aac
 8002ebc:	08005acc 	.word	0x08005acc
 8002ec0:	08005a8c 	.word	0x08005a8c

08002ec4 <__swsetup_r>:
 8002ec4:	4b32      	ldr	r3, [pc, #200]	; (8002f90 <__swsetup_r+0xcc>)
 8002ec6:	b570      	push	{r4, r5, r6, lr}
 8002ec8:	681d      	ldr	r5, [r3, #0]
 8002eca:	4606      	mov	r6, r0
 8002ecc:	460c      	mov	r4, r1
 8002ece:	b125      	cbz	r5, 8002eda <__swsetup_r+0x16>
 8002ed0:	69ab      	ldr	r3, [r5, #24]
 8002ed2:	b913      	cbnz	r3, 8002eda <__swsetup_r+0x16>
 8002ed4:	4628      	mov	r0, r5
 8002ed6:	f000 f955 	bl	8003184 <__sinit>
 8002eda:	4b2e      	ldr	r3, [pc, #184]	; (8002f94 <__swsetup_r+0xd0>)
 8002edc:	429c      	cmp	r4, r3
 8002ede:	d10f      	bne.n	8002f00 <__swsetup_r+0x3c>
 8002ee0:	686c      	ldr	r4, [r5, #4]
 8002ee2:	f9b4 300c 	ldrsh.w	r3, [r4, #12]
 8002ee6:	b29a      	uxth	r2, r3
 8002ee8:	0715      	lsls	r5, r2, #28
 8002eea:	d42c      	bmi.n	8002f46 <__swsetup_r+0x82>
 8002eec:	06d0      	lsls	r0, r2, #27
 8002eee:	d411      	bmi.n	8002f14 <__swsetup_r+0x50>
 8002ef0:	2209      	movs	r2, #9
 8002ef2:	6032      	str	r2, [r6, #0]
 8002ef4:	f043 0340 	orr.w	r3, r3, #64	; 0x40
 8002ef8:	81a3      	strh	r3, [r4, #12]
 8002efa:	f04f 30ff 	mov.w	r0, #4294967295	; 0xffffffff
 8002efe:	bd70      	pop	{r4, r5, r6, pc}
 8002f00:	4b25      	ldr	r3, [pc, #148]	; (8002f98 <__swsetup_r+0xd4>)
 8002f02:	429c      	cmp	r4, r3
 8002f04:	d101      	bne.n	8002f0a <__swsetup_r+0x46>
 8002f06:	68ac      	ldr	r4, [r5, #8]
 8002f08:	e7eb      	b.n	8002ee2 <__swsetup_r+0x1e>
 8002f0a:	4b24      	ldr	r3, [pc, #144]	; (8002f9c <__swsetup_r+0xd8>)
 8002f0c:	429c      	cmp	r4, r3
 8002f0e:	bf08      	it	eq
 8002f10:	68ec      	ldreq	r4, [r5, #12]
 8002f12:	e7e6      	b.n	8002ee2 <__swsetup_r+0x1e>
 8002f14:	0751      	lsls	r1, r2, #29
 8002f16:	d512      	bpl.n	8002f3e <__swsetup_r+0x7a>
 8002f18:	6b61      	ldr	r1, [r4, #52]	; 0x34
 8002f1a:	b141      	cbz	r1, 8002f2e <__swsetup_r+0x6a>
 8002f1c:	f104 0344 	add.w	r3, r4, #68	; 0x44
 8002f20:	4299      	cmp	r1, r3
 8002f22:	d002      	beq.n	8002f2a <__swsetup_r+0x66>
 8002f24:	4630      	mov	r0, r6
 8002f26:	f000 fa1b 	bl	8003360 <_free_r>
 8002f2a:	2300      	movs	r3, #0
 8002f2c:	6363      	str	r3, [r4, #52]	; 0x34
 8002f2e:	89a3      	ldrh	r3, [r4, #12]
 8002f30:	f023 0324 	bic.w	r3, r3, #36	; 0x24
 8002f34:	81a3      	strh	r3, [r4, #12]
 8002f36:	2300      	movs	r3, #0
 8002f38:	6063      	str	r3, [r4, #4]
 8002f3a:	6923      	ldr	r3, [r4, #16]
 8002f3c:	6023      	str	r3, [r4, #0]
 8002f3e:	89a3      	ldrh	r3, [r4, #12]
 8002f40:	f043 0308 	orr.w	r3, r3, #8
 8002f44:	81a3      	strh	r3, [r4, #12]
 8002f46:	6923      	ldr	r3, [r4, #16]
 8002f48:	b94b      	cbnz	r3, 8002f5e <__swsetup_r+0x9a>
 8002f4a:	89a3      	ldrh	r3, [r4, #12]
 8002f4c:	f403 7320 	and.w	r3, r3, #640	; 0x280
 8002f50:	f5b3 7f00 	cmp.w	r3, #512	; 0x200
 8002f54:	d003      	beq.n	8002f5e <__swsetup_r+0x9a>
 8002f56:	4621      	mov	r1, r4
 8002f58:	4630      	mov	r0, r6
 8002f5a:	f000 f9c1 	bl	80032e0 <__smakebuf_r>
 8002f5e:	89a2      	ldrh	r2, [r4, #12]
 8002f60:	f012 0301 	ands.w	r3, r2, #1
 8002f64:	d00c      	beq.n	8002f80 <__swsetup_r+0xbc>
 8002f66:	2300      	movs	r3, #0
 8002f68:	60a3      	str	r3, [r4, #8]
 8002f6a:	6963      	ldr	r3, [r4, #20]
 8002f6c:	425b      	negs	r3, r3
 8002f6e:	61a3      	str	r3, [r4, #24]
 8002f70:	6923      	ldr	r3, [r4, #16]
 8002f72:	b953      	cbnz	r3, 8002f8a <__swsetup_r+0xc6>
 8002f74:	f9b4 300c 	ldrsh.w	r3, [r4, #12]
 8002f78:	f013 0080 	ands.w	r0, r3, #128	; 0x80
 8002f7c:	d1ba      	bne.n	8002ef4 <__swsetup_r+0x30>
 8002f7e:	bd70      	pop	{r4, r5, r6, pc}
 8002f80:	0792      	lsls	r2, r2, #30
 8002f82:	bf58      	it	pl
 8002f84:	6963      	ldrpl	r3, [r4, #20]
 8002f86:	60a3      	str	r3, [r4, #8]
 8002f88:	e7f2      	b.n	8002f70 <__swsetup_r+0xac>
 8002f8a:	2000      	movs	r0, #0
 8002f8c:	e7f7      	b.n	8002f7e <__swsetup_r+0xba>
 8002f8e:	bf00      	nop
 8002f90:	2000000c 	.word	0x2000000c
 8002f94:	08005aac 	.word	0x08005aac
 8002f98:	08005acc 	.word	0x08005acc
 8002f9c:	08005a8c 	.word	0x08005a8c

08002fa0 <__sflush_r>:
 8002fa0:	898a      	ldrh	r2, [r1, #12]
 8002fa2:	e92d 41f0 	stmdb	sp!, {r4, r5, r6, r7, r8, lr}
 8002fa6:	4605      	mov	r5, r0
 8002fa8:	0710      	lsls	r0, r2, #28
 8002faa:	460c      	mov	r4, r1
 8002fac:	d45a      	bmi.n	8003064 <__sflush_r+0xc4>
 8002fae:	684b      	ldr	r3, [r1, #4]
 8002fb0:	2b00      	cmp	r3, #0
 8002fb2:	dc05      	bgt.n	8002fc0 <__sflush_r+0x20>
 8002fb4:	6c0b      	ldr	r3, [r1, #64]	; 0x40
 8002fb6:	2b00      	cmp	r3, #0
 8002fb8:	dc02      	bgt.n	8002fc0 <__sflush_r+0x20>
 8002fba:	2000      	movs	r0, #0
 8002fbc:	e8bd 81f0 	ldmia.w	sp!, {r4, r5, r6, r7, r8, pc}
 8002fc0:	6ae6      	ldr	r6, [r4, #44]	; 0x2c
 8002fc2:	2e00      	cmp	r6, #0
 8002fc4:	d0f9      	beq.n	8002fba <__sflush_r+0x1a>
 8002fc6:	2300      	movs	r3, #0
 8002fc8:	f412 5280 	ands.w	r2, r2, #4096	; 0x1000
 8002fcc:	682f      	ldr	r7, [r5, #0]
 8002fce:	602b      	str	r3, [r5, #0]
 8002fd0:	d033      	beq.n	800303a <__sflush_r+0x9a>
 8002fd2:	6d60      	ldr	r0, [r4, #84]	; 0x54
 8002fd4:	89a3      	ldrh	r3, [r4, #12]
 8002fd6:	075a      	lsls	r2, r3, #29
 8002fd8:	d505      	bpl.n	8002fe6 <__sflush_r+0x46>
 8002fda:	6863      	ldr	r3, [r4, #4]
 8002fdc:	1ac0      	subs	r0, r0, r3
 8002fde:	6b63      	ldr	r3, [r4, #52]	; 0x34
 8002fe0:	b10b      	cbz	r3, 8002fe6 <__sflush_r+0x46>
 8002fe2:	6c23      	ldr	r3, [r4, #64]	; 0x40
 8002fe4:	1ac0      	subs	r0, r0, r3
 8002fe6:	2300      	movs	r3, #0
 8002fe8:	4602      	mov	r2, r0
 8002fea:	6ae6      	ldr	r6, [r4, #44]	; 0x2c
 8002fec:	6a21      	ldr	r1, [r4, #32]
 8002fee:	4628      	mov	r0, r5
 8002ff0:	47b0      	blx	r6
 8002ff2:	1c43      	adds	r3, r0, #1
 8002ff4:	89a3      	ldrh	r3, [r4, #12]
 8002ff6:	d106      	bne.n	8003006 <__sflush_r+0x66>
 8002ff8:	6829      	ldr	r1, [r5, #0]
 8002ffa:	291d      	cmp	r1, #29
 8002ffc:	d84b      	bhi.n	8003096 <__sflush_r+0xf6>
 8002ffe:	4a2b      	ldr	r2, [pc, #172]	; (80030ac <__sflush_r+0x10c>)
 8003000:	40ca      	lsrs	r2, r1
 8003002:	07d6      	lsls	r6, r2, #31
 8003004:	d547      	bpl.n	8003096 <__sflush_r+0xf6>
 8003006:	2200      	movs	r2, #0
 8003008:	6062      	str	r2, [r4, #4]
 800300a:	6922      	ldr	r2, [r4, #16]
 800300c:	04d9      	lsls	r1, r3, #19
 800300e:	6022      	str	r2, [r4, #0]
 8003010:	d504      	bpl.n	800301c <__sflush_r+0x7c>
 8003012:	1c42      	adds	r2, r0, #1
 8003014:	d101      	bne.n	800301a <__sflush_r+0x7a>
 8003016:	682b      	ldr	r3, [r5, #0]
 8003018:	b903      	cbnz	r3, 800301c <__sflush_r+0x7c>
 800301a:	6560      	str	r0, [r4, #84]	; 0x54
 800301c:	6b61      	ldr	r1, [r4, #52]	; 0x34
 800301e:	602f      	str	r7, [r5, #0]
 8003020:	2900      	cmp	r1, #0
 8003022:	d0ca      	beq.n	8002fba <__sflush_r+0x1a>
 8003024:	f104 0344 	add.w	r3, r4, #68	; 0x44
 8003028:	4299      	cmp	r1, r3
 800302a:	d002      	beq.n	8003032 <__sflush_r+0x92>
 800302c:	4628      	mov	r0, r5
 800302e:	f000 f997 	bl	8003360 <_free_r>
 8003032:	2000      	movs	r0, #0
 8003034:	6360      	str	r0, [r4, #52]	; 0x34
 8003036:	e8bd 81f0 	ldmia.w	sp!, {r4, r5, r6, r7, r8, pc}
 800303a:	6a21      	ldr	r1, [r4, #32]
 800303c:	2301      	movs	r3, #1
 800303e:	4628      	mov	r0, r5
 8003040:	47b0      	blx	r6
 8003042:	1c41      	adds	r1, r0, #1
 8003044:	d1c6      	bne.n	8002fd4 <__sflush_r+0x34>
 8003046:	682b      	ldr	r3, [r5, #0]
 8003048:	2b00      	cmp	r3, #0
 800304a:	d0c3      	beq.n	8002fd4 <__sflush_r+0x34>
 800304c:	2b1d      	cmp	r3, #29
 800304e:	d001      	beq.n	8003054 <__sflush_r+0xb4>
 8003050:	2b16      	cmp	r3, #22
 8003052:	d101      	bne.n	8003058 <__sflush_r+0xb8>
 8003054:	602f      	str	r7, [r5, #0]
 8003056:	e7b0      	b.n	8002fba <__sflush_r+0x1a>
 8003058:	89a3      	ldrh	r3, [r4, #12]
 800305a:	f043 0340 	orr.w	r3, r3, #64	; 0x40
 800305e:	81a3      	strh	r3, [r4, #12]
 8003060:	e8bd 81f0 	ldmia.w	sp!, {r4, r5, r6, r7, r8, pc}
 8003064:	690f      	ldr	r7, [r1, #16]
 8003066:	2f00      	cmp	r7, #0
 8003068:	d0a7      	beq.n	8002fba <__sflush_r+0x1a>
 800306a:	0793      	lsls	r3, r2, #30
 800306c:	bf18      	it	ne
 800306e:	2300      	movne	r3, #0
 8003070:	680e      	ldr	r6, [r1, #0]
 8003072:	bf08      	it	eq
 8003074:	694b      	ldreq	r3, [r1, #20]
 8003076:	eba6 0807 	sub.w	r8, r6, r7
 800307a:	600f      	str	r7, [r1, #0]
 800307c:	608b      	str	r3, [r1, #8]
 800307e:	f1b8 0f00 	cmp.w	r8, #0
 8003082:	dd9a      	ble.n	8002fba <__sflush_r+0x1a>
 8003084:	4643      	mov	r3, r8
 8003086:	463a      	mov	r2, r7
 8003088:	6a21      	ldr	r1, [r4, #32]
 800308a:	4628      	mov	r0, r5
 800308c:	6aa6      	ldr	r6, [r4, #40]	; 0x28
 800308e:	47b0      	blx	r6
 8003090:	2800      	cmp	r0, #0
 8003092:	dc07      	bgt.n	80030a4 <__sflush_r+0x104>
 8003094:	89a3      	ldrh	r3, [r4, #12]
 8003096:	f043 0340 	orr.w	r3, r3, #64	; 0x40
 800309a:	81a3      	strh	r3, [r4, #12]
 800309c:	f04f 30ff 	mov.w	r0, #4294967295	; 0xffffffff
 80030a0:	e8bd 81f0 	ldmia.w	sp!, {r4, r5, r6, r7, r8, pc}
 80030a4:	4407      	add	r7, r0
 80030a6:	eba8 0800 	sub.w	r8, r8, r0
 80030aa:	e7e8      	b.n	800307e <__sflush_r+0xde>
 80030ac:	20400001 	.word	0x20400001

080030b0 <_fflush_r>:
 80030b0:	b538      	push	{r3, r4, r5, lr}
 80030b2:	690b      	ldr	r3, [r1, #16]
 80030b4:	4605      	mov	r5, r0
 80030b6:	460c      	mov	r4, r1
 80030b8:	b1db      	cbz	r3, 80030f2 <_fflush_r+0x42>
 80030ba:	b118      	cbz	r0, 80030c4 <_fflush_r+0x14>
 80030bc:	6983      	ldr	r3, [r0, #24]
 80030be:	b90b      	cbnz	r3, 80030c4 <_fflush_r+0x14>
 80030c0:	f000 f860 	bl	8003184 <__sinit>
 80030c4:	4b0c      	ldr	r3, [pc, #48]	; (80030f8 <_fflush_r+0x48>)
 80030c6:	429c      	cmp	r4, r3
 80030c8:	d109      	bne.n	80030de <_fflush_r+0x2e>
 80030ca:	686c      	ldr	r4, [r5, #4]
 80030cc:	f9b4 300c 	ldrsh.w	r3, [r4, #12]
 80030d0:	b17b      	cbz	r3, 80030f2 <_fflush_r+0x42>
 80030d2:	4621      	mov	r1, r4
 80030d4:	4628      	mov	r0, r5
 80030d6:	e8bd 4038 	ldmia.w	sp!, {r3, r4, r5, lr}
 80030da:	f7ff bf61 	b.w	8002fa0 <__sflush_r>
 80030de:	4b07      	ldr	r3, [pc, #28]	; (80030fc <_fflush_r+0x4c>)
 80030e0:	429c      	cmp	r4, r3
 80030e2:	d101      	bne.n	80030e8 <_fflush_r+0x38>
 80030e4:	68ac      	ldr	r4, [r5, #8]
 80030e6:	e7f1      	b.n	80030cc <_fflush_r+0x1c>
 80030e8:	4b05      	ldr	r3, [pc, #20]	; (8003100 <_fflush_r+0x50>)
 80030ea:	429c      	cmp	r4, r3
 80030ec:	bf08      	it	eq
 80030ee:	68ec      	ldreq	r4, [r5, #12]
 80030f0:	e7ec      	b.n	80030cc <_fflush_r+0x1c>
 80030f2:	2000      	movs	r0, #0
 80030f4:	bd38      	pop	{r3, r4, r5, pc}
 80030f6:	bf00      	nop
 80030f8:	08005aac 	.word	0x08005aac
 80030fc:	08005acc 	.word	0x08005acc
 8003100:	08005a8c 	.word	0x08005a8c

08003104 <_cleanup_r>:
 8003104:	4901      	ldr	r1, [pc, #4]	; (800310c <_cleanup_r+0x8>)
 8003106:	f000 b8a9 	b.w	800325c <_fwalk_reent>
 800310a:	bf00      	nop
 800310c:	080030b1 	.word	0x080030b1

08003110 <std.isra.0>:
 8003110:	2300      	movs	r3, #0
 8003112:	b510      	push	{r4, lr}
 8003114:	4604      	mov	r4, r0
 8003116:	6003      	str	r3, [r0, #0]
 8003118:	6043      	str	r3, [r0, #4]
 800311a:	6083      	str	r3, [r0, #8]
 800311c:	8181      	strh	r1, [r0, #12]
 800311e:	6643      	str	r3, [r0, #100]	; 0x64
 8003120:	81c2      	strh	r2, [r0, #14]
 8003122:	6103      	str	r3, [r0, #16]
 8003124:	6143      	str	r3, [r0, #20]
 8003126:	6183      	str	r3, [r0, #24]
 8003128:	4619      	mov	r1, r3
 800312a:	2208      	movs	r2, #8
 800312c:	305c      	adds	r0, #92	; 0x5c
 800312e:	f7ff fddf 	bl	8002cf0 <memset>
 8003132:	4b05      	ldr	r3, [pc, #20]	; (8003148 <std.isra.0+0x38>)
 8003134:	6224      	str	r4, [r4, #32]
 8003136:	6263      	str	r3, [r4, #36]	; 0x24
 8003138:	4b04      	ldr	r3, [pc, #16]	; (800314c <std.isra.0+0x3c>)
 800313a:	62a3      	str	r3, [r4, #40]	; 0x28
 800313c:	4b04      	ldr	r3, [pc, #16]	; (8003150 <std.isra.0+0x40>)
 800313e:	62e3      	str	r3, [r4, #44]	; 0x2c
 8003140:	4b04      	ldr	r3, [pc, #16]	; (8003154 <std.isra.0+0x44>)
 8003142:	6323      	str	r3, [r4, #48]	; 0x30
 8003144:	bd10      	pop	{r4, pc}
 8003146:	bf00      	nop
 8003148:	08003aa5 	.word	0x08003aa5
 800314c:	08003ac7 	.word	0x08003ac7
 8003150:	08003aff 	.word	0x08003aff
 8003154:	08003b23 	.word	0x08003b23

08003158 <__sfmoreglue>:
 8003158:	b570      	push	{r4, r5, r6, lr}
 800315a:	2568      	movs	r5, #104	; 0x68
 800315c:	1e4a      	subs	r2, r1, #1
 800315e:	4355      	muls	r5, r2
 8003160:	460e      	mov	r6, r1
 8003162:	f105 0174 	add.w	r1, r5, #116	; 0x74
 8003166:	f000 f947 	bl	80033f8 <_malloc_r>
 800316a:	4604      	mov	r4, r0
 800316c:	b140      	cbz	r0, 8003180 <__sfmoreglue+0x28>
 800316e:	2100      	movs	r1, #0
 8003170:	e880 0042 	stmia.w	r0, {r1, r6}
 8003174:	300c      	adds	r0, #12
 8003176:	60a0      	str	r0, [r4, #8]
 8003178:	f105 0268 	add.w	r2, r5, #104	; 0x68
 800317c:	f7ff fdb8 	bl	8002cf0 <memset>
 8003180:	4620      	mov	r0, r4
 8003182:	bd70      	pop	{r4, r5, r6, pc}

08003184 <__sinit>:
 8003184:	6983      	ldr	r3, [r0, #24]
 8003186:	b510      	push	{r4, lr}
 8003188:	4604      	mov	r4, r0
 800318a:	bb33      	cbnz	r3, 80031da <__sinit+0x56>
 800318c:	6483      	str	r3, [r0, #72]	; 0x48
 800318e:	64c3      	str	r3, [r0, #76]	; 0x4c
 8003190:	6503      	str	r3, [r0, #80]	; 0x50
 8003192:	4b12      	ldr	r3, [pc, #72]	; (80031dc <__sinit+0x58>)
 8003194:	4a12      	ldr	r2, [pc, #72]	; (80031e0 <__sinit+0x5c>)
 8003196:	681b      	ldr	r3, [r3, #0]
 8003198:	6282      	str	r2, [r0, #40]	; 0x28
 800319a:	4298      	cmp	r0, r3
 800319c:	bf04      	itt	eq
 800319e:	2301      	moveq	r3, #1
 80031a0:	6183      	streq	r3, [r0, #24]
 80031a2:	f000 f81f 	bl	80031e4 <__sfp>
 80031a6:	6060      	str	r0, [r4, #4]
 80031a8:	4620      	mov	r0, r4
 80031aa:	f000 f81b 	bl	80031e4 <__sfp>
 80031ae:	60a0      	str	r0, [r4, #8]
 80031b0:	4620      	mov	r0, r4
 80031b2:	f000 f817 	bl	80031e4 <__sfp>
 80031b6:	2200      	movs	r2, #0
 80031b8:	60e0      	str	r0, [r4, #12]
 80031ba:	2104      	movs	r1, #4
 80031bc:	6860      	ldr	r0, [r4, #4]
 80031be:	f7ff ffa7 	bl	8003110 <std.isra.0>
 80031c2:	2201      	movs	r2, #1
 80031c4:	2109      	movs	r1, #9
 80031c6:	68a0      	ldr	r0, [r4, #8]
 80031c8:	f7ff ffa2 	bl	8003110 <std.isra.0>
 80031cc:	2202      	movs	r2, #2
 80031ce:	2112      	movs	r1, #18
 80031d0:	68e0      	ldr	r0, [r4, #12]
 80031d2:	f7ff ff9d 	bl	8003110 <std.isra.0>
 80031d6:	2301      	movs	r3, #1
 80031d8:	61a3      	str	r3, [r4, #24]
 80031da:	bd10      	pop	{r4, pc}
 80031dc:	08005a88 	.word	0x08005a88
 80031e0:	08003105 	.word	0x08003105

080031e4 <__sfp>:
 80031e4:	b5f8      	push	{r3, r4, r5, r6, r7, lr}
 80031e6:	4b1c      	ldr	r3, [pc, #112]	; (8003258 <__sfp+0x74>)
 80031e8:	4607      	mov	r7, r0
 80031ea:	681e      	ldr	r6, [r3, #0]
 80031ec:	69b3      	ldr	r3, [r6, #24]
 80031ee:	b913      	cbnz	r3, 80031f6 <__sfp+0x12>
 80031f0:	4630      	mov	r0, r6
 80031f2:	f7ff ffc7 	bl	8003184 <__sinit>
 80031f6:	3648      	adds	r6, #72	; 0x48
 80031f8:	68b4      	ldr	r4, [r6, #8]
 80031fa:	6873      	ldr	r3, [r6, #4]
 80031fc:	3b01      	subs	r3, #1
 80031fe:	d503      	bpl.n	8003208 <__sfp+0x24>
 8003200:	6833      	ldr	r3, [r6, #0]
 8003202:	b133      	cbz	r3, 8003212 <__sfp+0x2e>
 8003204:	6836      	ldr	r6, [r6, #0]
 8003206:	e7f7      	b.n	80031f8 <__sfp+0x14>
 8003208:	f9b4 500c 	ldrsh.w	r5, [r4, #12]
 800320c:	b16d      	cbz	r5, 800322a <__sfp+0x46>
 800320e:	3468      	adds	r4, #104	; 0x68
 8003210:	e7f4      	b.n	80031fc <__sfp+0x18>
 8003212:	2104      	movs	r1, #4
 8003214:	4638      	mov	r0, r7
 8003216:	f7ff ff9f 	bl	8003158 <__sfmoreglue>
 800321a:	6030      	str	r0, [r6, #0]
 800321c:	2800      	cmp	r0, #0
 800321e:	d1f1      	bne.n	8003204 <__sfp+0x20>
 8003220:	230c      	movs	r3, #12
 8003222:	4604      	mov	r4, r0
 8003224:	603b      	str	r3, [r7, #0]
 8003226:	4620      	mov	r0, r4
 8003228:	bdf8      	pop	{r3, r4, r5, r6, r7, pc}
 800322a:	f64f 73ff 	movw	r3, #65535	; 0xffff
 800322e:	81e3      	strh	r3, [r4, #14]
 8003230:	2301      	movs	r3, #1
 8003232:	6665      	str	r5, [r4, #100]	; 0x64
 8003234:	81a3      	strh	r3, [r4, #12]
 8003236:	6025      	str	r5, [r4, #0]
 8003238:	60a5      	str	r5, [r4, #8]
 800323a:	6065      	str	r5, [r4, #4]
 800323c:	6125      	str	r5, [r4, #16]
 800323e:	6165      	str	r5, [r4, #20]
 8003240:	61a5      	str	r5, [r4, #24]
 8003242:	2208      	movs	r2, #8
 8003244:	4629      	mov	r1, r5
 8003246:	f104 005c 	add.w	r0, r4, #92	; 0x5c
 800324a:	f7ff fd51 	bl	8002cf0 <memset>
 800324e:	6365      	str	r5, [r4, #52]	; 0x34
 8003250:	63a5      	str	r5, [r4, #56]	; 0x38
 8003252:	64a5      	str	r5, [r4, #72]	; 0x48
 8003254:	64e5      	str	r5, [r4, #76]	; 0x4c
 8003256:	e7e6      	b.n	8003226 <__sfp+0x42>
 8003258:	08005a88 	.word	0x08005a88

0800325c <_fwalk_reent>:
 800325c:	e92d 43f8 	stmdb	sp!, {r3, r4, r5, r6, r7, r8, r9, lr}
 8003260:	4680      	mov	r8, r0
 8003262:	4689      	mov	r9, r1
 8003264:	2600      	movs	r6, #0
 8003266:	f100 0448 	add.w	r4, r0, #72	; 0x48
 800326a:	b914      	cbnz	r4, 8003272 <_fwalk_reent+0x16>
 800326c:	4630      	mov	r0, r6
 800326e:	e8bd 83f8 	ldmia.w	sp!, {r3, r4, r5, r6, r7, r8, r9, pc}
 8003272:	68a5      	ldr	r5, [r4, #8]
 8003274:	6867      	ldr	r7, [r4, #4]
 8003276:	3f01      	subs	r7, #1
 8003278:	d501      	bpl.n	800327e <_fwalk_reent+0x22>
 800327a:	6824      	ldr	r4, [r4, #0]
 800327c:	e7f5      	b.n	800326a <_fwalk_reent+0xe>
 800327e:	89ab      	ldrh	r3, [r5, #12]
 8003280:	2b01      	cmp	r3, #1
 8003282:	d907      	bls.n	8003294 <_fwalk_reent+0x38>
 8003284:	f9b5 300e 	ldrsh.w	r3, [r5, #14]
 8003288:	3301      	adds	r3, #1
 800328a:	d003      	beq.n	8003294 <_fwalk_reent+0x38>
 800328c:	4629      	mov	r1, r5
 800328e:	4640      	mov	r0, r8
 8003290:	47c8      	blx	r9
 8003292:	4306      	orrs	r6, r0
 8003294:	3568      	adds	r5, #104	; 0x68
 8003296:	e7ee      	b.n	8003276 <_fwalk_reent+0x1a>

08003298 <__swhatbuf_r>:
 8003298:	b570      	push	{r4, r5, r6, lr}
 800329a:	460e      	mov	r6, r1
 800329c:	f9b1 100e 	ldrsh.w	r1, [r1, #14]
 80032a0:	b090      	sub	sp, #64	; 0x40
 80032a2:	2900      	cmp	r1, #0
 80032a4:	4614      	mov	r4, r2
 80032a6:	461d      	mov	r5, r3
 80032a8:	da07      	bge.n	80032ba <__swhatbuf_r+0x22>
 80032aa:	2300      	movs	r3, #0
 80032ac:	602b      	str	r3, [r5, #0]
 80032ae:	89b3      	ldrh	r3, [r6, #12]
 80032b0:	061a      	lsls	r2, r3, #24
 80032b2:	d410      	bmi.n	80032d6 <__swhatbuf_r+0x3e>
 80032b4:	f44f 6380 	mov.w	r3, #1024	; 0x400
 80032b8:	e00e      	b.n	80032d8 <__swhatbuf_r+0x40>
 80032ba:	aa01      	add	r2, sp, #4
 80032bc:	f000 fc58 	bl	8003b70 <_fstat_r>
 80032c0:	2800      	cmp	r0, #0
 80032c2:	dbf2      	blt.n	80032aa <__swhatbuf_r+0x12>
 80032c4:	9a02      	ldr	r2, [sp, #8]
 80032c6:	f402 4270 	and.w	r2, r2, #61440	; 0xf000
 80032ca:	f5a2 5300 	sub.w	r3, r2, #8192	; 0x2000
 80032ce:	425a      	negs	r2, r3
 80032d0:	415a      	adcs	r2, r3
 80032d2:	602a      	str	r2, [r5, #0]
 80032d4:	e7ee      	b.n	80032b4 <__swhatbuf_r+0x1c>
 80032d6:	2340      	movs	r3, #64	; 0x40
 80032d8:	2000      	movs	r0, #0
 80032da:	6023      	str	r3, [r4, #0]
 80032dc:	b010      	add	sp, #64	; 0x40
 80032de:	bd70      	pop	{r4, r5, r6, pc}

080032e0 <__smakebuf_r>:
 80032e0:	898b      	ldrh	r3, [r1, #12]
 80032e2:	b573      	push	{r0, r1, r4, r5, r6, lr}
 80032e4:	079d      	lsls	r5, r3, #30
 80032e6:	4606      	mov	r6, r0
 80032e8:	460c      	mov	r4, r1
 80032ea:	d507      	bpl.n	80032fc <__smakebuf_r+0x1c>
 80032ec:	f104 0347 	add.w	r3, r4, #71	; 0x47
 80032f0:	6023      	str	r3, [r4, #0]
 80032f2:	6123      	str	r3, [r4, #16]
 80032f4:	2301      	movs	r3, #1
 80032f6:	6163      	str	r3, [r4, #20]
 80032f8:	b002      	add	sp, #8
 80032fa:	bd70      	pop	{r4, r5, r6, pc}
 80032fc:	ab01      	add	r3, sp, #4
 80032fe:	466a      	mov	r2, sp
 8003300:	f7ff ffca 	bl	8003298 <__swhatbuf_r>
 8003304:	9900      	ldr	r1, [sp, #0]
 8003306:	4605      	mov	r5, r0
 8003308:	4630      	mov	r0, r6
 800330a:	f000 f875 	bl	80033f8 <_malloc_r>
 800330e:	b948      	cbnz	r0, 8003324 <__smakebuf_r+0x44>
 8003310:	f9b4 300c 	ldrsh.w	r3, [r4, #12]
 8003314:	059a      	lsls	r2, r3, #22
 8003316:	d4ef      	bmi.n	80032f8 <__smakebuf_r+0x18>
 8003318:	f023 0303 	bic.w	r3, r3, #3
 800331c:	f043 0302 	orr.w	r3, r3, #2
 8003320:	81a3      	strh	r3, [r4, #12]
 8003322:	e7e3      	b.n	80032ec <__smakebuf_r+0xc>
 8003324:	4b0d      	ldr	r3, [pc, #52]	; (800335c <__smakebuf_r+0x7c>)
 8003326:	62b3      	str	r3, [r6, #40]	; 0x28
 8003328:	89a3      	ldrh	r3, [r4, #12]
 800332a:	6020      	str	r0, [r4, #0]
 800332c:	f043 0380 	orr.w	r3, r3, #128	; 0x80
 8003330:	81a3      	strh	r3, [r4, #12]
 8003332:	9b00      	ldr	r3, [sp, #0]
 8003334:	6120      	str	r0, [r4, #16]
 8003336:	6163      	str	r3, [r4, #20]
 8003338:	9b01      	ldr	r3, [sp, #4]
 800333a:	b15b      	cbz	r3, 8003354 <__smakebuf_r+0x74>
 800333c:	f9b4 100e 	ldrsh.w	r1, [r4, #14]
 8003340:	4630      	mov	r0, r6
 8003342:	f000 fc27 	bl	8003b94 <_isatty_r>
 8003346:	b128      	cbz	r0, 8003354 <__smakebuf_r+0x74>
 8003348:	89a3      	ldrh	r3, [r4, #12]
 800334a:	f023 0303 	bic.w	r3, r3, #3
 800334e:	f043 0301 	orr.w	r3, r3, #1
 8003352:	81a3      	strh	r3, [r4, #12]
 8003354:	89a3      	ldrh	r3, [r4, #12]
 8003356:	431d      	orrs	r5, r3
 8003358:	81a5      	strh	r5, [r4, #12]
 800335a:	e7cd      	b.n	80032f8 <__smakebuf_r+0x18>
 800335c:	08003105 	.word	0x08003105

08003360 <_free_r>:
 8003360:	b538      	push	{r3, r4, r5, lr}
 8003362:	4605      	mov	r5, r0
 8003364:	2900      	cmp	r1, #0
 8003366:	d043      	beq.n	80033f0 <_free_r+0x90>
 8003368:	f851 3c04 	ldr.w	r3, [r1, #-4]
 800336c:	1f0c      	subs	r4, r1, #4
 800336e:	2b00      	cmp	r3, #0
 8003370:	bfb8      	it	lt
 8003372:	18e4      	addlt	r4, r4, r3
 8003374:	f000 fc63 	bl	8003c3e <__malloc_lock>
 8003378:	4a1e      	ldr	r2, [pc, #120]	; (80033f4 <_free_r+0x94>)
 800337a:	6813      	ldr	r3, [r2, #0]
 800337c:	4610      	mov	r0, r2
 800337e:	b933      	cbnz	r3, 800338e <_free_r+0x2e>
 8003380:	6063      	str	r3, [r4, #4]
 8003382:	6014      	str	r4, [r2, #0]
 8003384:	4628      	mov	r0, r5
 8003386:	e8bd 4038 	ldmia.w	sp!, {r3, r4, r5, lr}
 800338a:	f000 bc59 	b.w	8003c40 <__malloc_unlock>
 800338e:	42a3      	cmp	r3, r4
 8003390:	d90b      	bls.n	80033aa <_free_r+0x4a>
 8003392:	6821      	ldr	r1, [r4, #0]
 8003394:	1862      	adds	r2, r4, r1
 8003396:	4293      	cmp	r3, r2
 8003398:	bf01      	itttt	eq
 800339a:	681a      	ldreq	r2, [r3, #0]
 800339c:	685b      	ldreq	r3, [r3, #4]
 800339e:	1852      	addeq	r2, r2, r1
 80033a0:	6022      	streq	r2, [r4, #0]
 80033a2:	6063      	str	r3, [r4, #4]
 80033a4:	6004      	str	r4, [r0, #0]
 80033a6:	e7ed      	b.n	8003384 <_free_r+0x24>
 80033a8:	4613      	mov	r3, r2
 80033aa:	685a      	ldr	r2, [r3, #4]
 80033ac:	b10a      	cbz	r2, 80033b2 <_free_r+0x52>
 80033ae:	42a2      	cmp	r2, r4
 80033b0:	d9fa      	bls.n	80033a8 <_free_r+0x48>
 80033b2:	6819      	ldr	r1, [r3, #0]
 80033b4:	1858      	adds	r0, r3, r1
 80033b6:	42a0      	cmp	r0, r4
 80033b8:	d10b      	bne.n	80033d2 <_free_r+0x72>
 80033ba:	6820      	ldr	r0, [r4, #0]
 80033bc:	4401      	add	r1, r0
 80033be:	1858      	adds	r0, r3, r1
 80033c0:	4282      	cmp	r2, r0
 80033c2:	6019      	str	r1, [r3, #0]
 80033c4:	d1de      	bne.n	8003384 <_free_r+0x24>
 80033c6:	6810      	ldr	r0, [r2, #0]
 80033c8:	6852      	ldr	r2, [r2, #4]
 80033ca:	4401      	add	r1, r0
 80033cc:	6019      	str	r1, [r3, #0]
 80033ce:	605a      	str	r2, [r3, #4]
 80033d0:	e7d8      	b.n	8003384 <_free_r+0x24>
 80033d2:	d902      	bls.n	80033da <_free_r+0x7a>
 80033d4:	230c      	movs	r3, #12
 80033d6:	602b      	str	r3, [r5, #0]
 80033d8:	e7d4      	b.n	8003384 <_free_r+0x24>
 80033da:	6820      	ldr	r0, [r4, #0]
 80033dc:	1821      	adds	r1, r4, r0
 80033de:	428a      	cmp	r2, r1
 80033e0:	bf01      	itttt	eq
 80033e2:	6811      	ldreq	r1, [r2, #0]
 80033e4:	6852      	ldreq	r2, [r2, #4]
 80033e6:	1809      	addeq	r1, r1, r0
 80033e8:	6021      	streq	r1, [r4, #0]
 80033ea:	6062      	str	r2, [r4, #4]
 80033ec:	605c      	str	r4, [r3, #4]
 80033ee:	e7c9      	b.n	8003384 <_free_r+0x24>
 80033f0:	bd38      	pop	{r3, r4, r5, pc}
 80033f2:	bf00      	nop
 80033f4:	200001a8 	.word	0x200001a8

080033f8 <_malloc_r>:
 80033f8:	b570      	push	{r4, r5, r6, lr}
 80033fa:	1ccd      	adds	r5, r1, #3
 80033fc:	f025 0503 	bic.w	r5, r5, #3
 8003400:	3508      	adds	r5, #8
 8003402:	2d0c      	cmp	r5, #12
 8003404:	bf38      	it	cc
 8003406:	250c      	movcc	r5, #12
 8003408:	2d00      	cmp	r5, #0
 800340a:	4606      	mov	r6, r0
 800340c:	db01      	blt.n	8003412 <_malloc_r+0x1a>
 800340e:	42a9      	cmp	r1, r5
 8003410:	d903      	bls.n	800341a <_malloc_r+0x22>
 8003412:	230c      	movs	r3, #12
 8003414:	6033      	str	r3, [r6, #0]
 8003416:	2000      	movs	r0, #0
 8003418:	bd70      	pop	{r4, r5, r6, pc}
 800341a:	f000 fc10 	bl	8003c3e <__malloc_lock>
 800341e:	4a23      	ldr	r2, [pc, #140]	; (80034ac <_malloc_r+0xb4>)
 8003420:	6814      	ldr	r4, [r2, #0]
 8003422:	4621      	mov	r1, r4
 8003424:	b991      	cbnz	r1, 800344c <_malloc_r+0x54>
 8003426:	4c22      	ldr	r4, [pc, #136]	; (80034b0 <_malloc_r+0xb8>)
 8003428:	6823      	ldr	r3, [r4, #0]
 800342a:	b91b      	cbnz	r3, 8003434 <_malloc_r+0x3c>
 800342c:	4630      	mov	r0, r6
 800342e:	f000 fb29 	bl	8003a84 <_sbrk_r>
 8003432:	6020      	str	r0, [r4, #0]
 8003434:	4629      	mov	r1, r5
 8003436:	4630      	mov	r0, r6
 8003438:	f000 fb24 	bl	8003a84 <_sbrk_r>
 800343c:	1c43      	adds	r3, r0, #1
 800343e:	d126      	bne.n	800348e <_malloc_r+0x96>
 8003440:	230c      	movs	r3, #12
 8003442:	4630      	mov	r0, r6
 8003444:	6033      	str	r3, [r6, #0]
 8003446:	f000 fbfb 	bl	8003c40 <__malloc_unlock>
 800344a:	e7e4      	b.n	8003416 <_malloc_r+0x1e>
 800344c:	680b      	ldr	r3, [r1, #0]
 800344e:	1b5b      	subs	r3, r3, r5
 8003450:	d41a      	bmi.n	8003488 <_malloc_r+0x90>
 8003452:	2b0b      	cmp	r3, #11
 8003454:	d90f      	bls.n	8003476 <_malloc_r+0x7e>
 8003456:	600b      	str	r3, [r1, #0]
 8003458:	18cc      	adds	r4, r1, r3
 800345a:	50cd      	str	r5, [r1, r3]
 800345c:	4630      	mov	r0, r6
 800345e:	f000 fbef 	bl	8003c40 <__malloc_unlock>
 8003462:	f104 000b 	add.w	r0, r4, #11
 8003466:	1d23      	adds	r3, r4, #4
 8003468:	f020 0007 	bic.w	r0, r0, #7
 800346c:	1ac3      	subs	r3, r0, r3
 800346e:	d01b      	beq.n	80034a8 <_malloc_r+0xb0>
 8003470:	425a      	negs	r2, r3
 8003472:	50e2      	str	r2, [r4, r3]
 8003474:	bd70      	pop	{r4, r5, r6, pc}
 8003476:	428c      	cmp	r4, r1
 8003478:	bf0b      	itete	eq
 800347a:	6863      	ldreq	r3, [r4, #4]
 800347c:	684b      	ldrne	r3, [r1, #4]
 800347e:	6013      	streq	r3, [r2, #0]
 8003480:	6063      	strne	r3, [r4, #4]
 8003482:	bf18      	it	ne
 8003484:	460c      	movne	r4, r1
 8003486:	e7e9      	b.n	800345c <_malloc_r+0x64>
 8003488:	460c      	mov	r4, r1
 800348a:	6849      	ldr	r1, [r1, #4]
 800348c:	e7ca      	b.n	8003424 <_malloc_r+0x2c>
 800348e:	1cc4      	adds	r4, r0, #3
 8003490:	f024 0403 	bic.w	r4, r4, #3
 8003494:	42a0      	cmp	r0, r4
 8003496:	d005      	beq.n	80034a4 <_malloc_r+0xac>
 8003498:	1a21      	subs	r1, r4, r0
 800349a:	4630      	mov	r0, r6
 800349c:	f000 faf2 	bl	8003a84 <_sbrk_r>
 80034a0:	3001      	adds	r0, #1
 80034a2:	d0cd      	beq.n	8003440 <_malloc_r+0x48>
 80034a4:	6025      	str	r5, [r4, #0]
 80034a6:	e7d9      	b.n	800345c <_malloc_r+0x64>
 80034a8:	bd70      	pop	{r4, r5, r6, pc}
 80034aa:	bf00      	nop
 80034ac:	200001a8 	.word	0x200001a8
 80034b0:	200001ac 	.word	0x200001ac

080034b4 <__ssputs_r>:
 80034b4:	e92d 47f0 	stmdb	sp!, {r4, r5, r6, r7, r8, r9, sl, lr}
 80034b8:	688e      	ldr	r6, [r1, #8]
 80034ba:	4682      	mov	sl, r0
 80034bc:	429e      	cmp	r6, r3
 80034be:	460c      	mov	r4, r1
 80034c0:	4691      	mov	r9, r2
 80034c2:	4698      	mov	r8, r3
 80034c4:	d835      	bhi.n	8003532 <__ssputs_r+0x7e>
 80034c6:	898a      	ldrh	r2, [r1, #12]
 80034c8:	f412 6f90 	tst.w	r2, #1152	; 0x480
 80034cc:	d031      	beq.n	8003532 <__ssputs_r+0x7e>
 80034ce:	2302      	movs	r3, #2
 80034d0:	6825      	ldr	r5, [r4, #0]
 80034d2:	6909      	ldr	r1, [r1, #16]
 80034d4:	1a6f      	subs	r7, r5, r1
 80034d6:	6965      	ldr	r5, [r4, #20]
 80034d8:	eb05 0545 	add.w	r5, r5, r5, lsl #1
 80034dc:	fb95 f5f3 	sdiv	r5, r5, r3
 80034e0:	f108 0301 	add.w	r3, r8, #1
 80034e4:	443b      	add	r3, r7
 80034e6:	429d      	cmp	r5, r3
 80034e8:	bf38      	it	cc
 80034ea:	461d      	movcc	r5, r3
 80034ec:	0553      	lsls	r3, r2, #21
 80034ee:	d531      	bpl.n	8003554 <__ssputs_r+0xa0>
 80034f0:	4629      	mov	r1, r5
 80034f2:	f7ff ff81 	bl	80033f8 <_malloc_r>
 80034f6:	4606      	mov	r6, r0
 80034f8:	b950      	cbnz	r0, 8003510 <__ssputs_r+0x5c>
 80034fa:	230c      	movs	r3, #12
 80034fc:	f8ca 3000 	str.w	r3, [sl]
 8003500:	89a3      	ldrh	r3, [r4, #12]
 8003502:	f04f 30ff 	mov.w	r0, #4294967295	; 0xffffffff
 8003506:	f043 0340 	orr.w	r3, r3, #64	; 0x40
 800350a:	81a3      	strh	r3, [r4, #12]
 800350c:	e8bd 87f0 	ldmia.w	sp!, {r4, r5, r6, r7, r8, r9, sl, pc}
 8003510:	463a      	mov	r2, r7
 8003512:	6921      	ldr	r1, [r4, #16]
 8003514:	f000 fb6e 	bl	8003bf4 <memcpy>
 8003518:	89a3      	ldrh	r3, [r4, #12]
 800351a:	f423 6390 	bic.w	r3, r3, #1152	; 0x480
 800351e:	f043 0380 	orr.w	r3, r3, #128	; 0x80
 8003522:	81a3      	strh	r3, [r4, #12]
 8003524:	6126      	str	r6, [r4, #16]
 8003526:	443e      	add	r6, r7
 8003528:	6026      	str	r6, [r4, #0]
 800352a:	4646      	mov	r6, r8
 800352c:	6165      	str	r5, [r4, #20]
 800352e:	1bed      	subs	r5, r5, r7
 8003530:	60a5      	str	r5, [r4, #8]
 8003532:	4546      	cmp	r6, r8
 8003534:	bf28      	it	cs
 8003536:	4646      	movcs	r6, r8
 8003538:	4649      	mov	r1, r9
 800353a:	4632      	mov	r2, r6
 800353c:	6820      	ldr	r0, [r4, #0]
 800353e:	f000 fb64 	bl	8003c0a <memmove>
 8003542:	68a3      	ldr	r3, [r4, #8]
 8003544:	2000      	movs	r0, #0
 8003546:	1b9b      	subs	r3, r3, r6
 8003548:	60a3      	str	r3, [r4, #8]
 800354a:	6823      	ldr	r3, [r4, #0]
 800354c:	441e      	add	r6, r3
 800354e:	6026      	str	r6, [r4, #0]
 8003550:	e8bd 87f0 	ldmia.w	sp!, {r4, r5, r6, r7, r8, r9, sl, pc}
 8003554:	462a      	mov	r2, r5
 8003556:	f000 fb74 	bl	8003c42 <_realloc_r>
 800355a:	4606      	mov	r6, r0
 800355c:	2800      	cmp	r0, #0
 800355e:	d1e1      	bne.n	8003524 <__ssputs_r+0x70>
 8003560:	6921      	ldr	r1, [r4, #16]
 8003562:	4650      	mov	r0, sl
 8003564:	f7ff fefc 	bl	8003360 <_free_r>
 8003568:	e7c7      	b.n	80034fa <__ssputs_r+0x46>
	...

0800356c <_svfiprintf_r>:
 800356c:	e92d 4ff0 	stmdb	sp!, {r4, r5, r6, r7, r8, r9, sl, fp, lr}
 8003570:	b09d      	sub	sp, #116	; 0x74
 8003572:	9303      	str	r3, [sp, #12]
 8003574:	898b      	ldrh	r3, [r1, #12]
 8003576:	4680      	mov	r8, r0
 8003578:	061c      	lsls	r4, r3, #24
 800357a:	460d      	mov	r5, r1
 800357c:	4616      	mov	r6, r2
 800357e:	d50f      	bpl.n	80035a0 <_svfiprintf_r+0x34>
 8003580:	690b      	ldr	r3, [r1, #16]
 8003582:	b96b      	cbnz	r3, 80035a0 <_svfiprintf_r+0x34>
 8003584:	2140      	movs	r1, #64	; 0x40
 8003586:	f7ff ff37 	bl	80033f8 <_malloc_r>
 800358a:	6028      	str	r0, [r5, #0]
 800358c:	6128      	str	r0, [r5, #16]
 800358e:	b928      	cbnz	r0, 800359c <_svfiprintf_r+0x30>
 8003590:	230c      	movs	r3, #12
 8003592:	f8c8 3000 	str.w	r3, [r8]
 8003596:	f04f 30ff 	mov.w	r0, #4294967295	; 0xffffffff
 800359a:	e0c4      	b.n	8003726 <_svfiprintf_r+0x1ba>
 800359c:	2340      	movs	r3, #64	; 0x40
 800359e:	616b      	str	r3, [r5, #20]
 80035a0:	2300      	movs	r3, #0
 80035a2:	9309      	str	r3, [sp, #36]	; 0x24
 80035a4:	2320      	movs	r3, #32
 80035a6:	f88d 3029 	strb.w	r3, [sp, #41]	; 0x29
 80035aa:	2330      	movs	r3, #48	; 0x30
 80035ac:	f04f 0b01 	mov.w	fp, #1
 80035b0:	f88d 302a 	strb.w	r3, [sp, #42]	; 0x2a
 80035b4:	4637      	mov	r7, r6
 80035b6:	463c      	mov	r4, r7
 80035b8:	f814 3b01 	ldrb.w	r3, [r4], #1
 80035bc:	2b00      	cmp	r3, #0
 80035be:	d13c      	bne.n	800363a <_svfiprintf_r+0xce>
 80035c0:	ebb7 0a06 	subs.w	sl, r7, r6
 80035c4:	d00b      	beq.n	80035de <_svfiprintf_r+0x72>
 80035c6:	4653      	mov	r3, sl
 80035c8:	4632      	mov	r2, r6
 80035ca:	4629      	mov	r1, r5
 80035cc:	4640      	mov	r0, r8
 80035ce:	f7ff ff71 	bl	80034b4 <__ssputs_r>
 80035d2:	3001      	adds	r0, #1
 80035d4:	f000 80a2 	beq.w	800371c <_svfiprintf_r+0x1b0>
 80035d8:	9b09      	ldr	r3, [sp, #36]	; 0x24
 80035da:	4453      	add	r3, sl
 80035dc:	9309      	str	r3, [sp, #36]	; 0x24
 80035de:	783b      	ldrb	r3, [r7, #0]
 80035e0:	2b00      	cmp	r3, #0
 80035e2:	f000 809b 	beq.w	800371c <_svfiprintf_r+0x1b0>
 80035e6:	2300      	movs	r3, #0
 80035e8:	f04f 32ff 	mov.w	r2, #4294967295	; 0xffffffff
 80035ec:	9304      	str	r3, [sp, #16]
 80035ee:	9307      	str	r3, [sp, #28]
 80035f0:	9205      	str	r2, [sp, #20]
 80035f2:	9306      	str	r3, [sp, #24]
 80035f4:	f88d 3053 	strb.w	r3, [sp, #83]	; 0x53
 80035f8:	931a      	str	r3, [sp, #104]	; 0x68
 80035fa:	2205      	movs	r2, #5
 80035fc:	7821      	ldrb	r1, [r4, #0]
 80035fe:	4850      	ldr	r0, [pc, #320]	; (8003740 <_svfiprintf_r+0x1d4>)
 8003600:	f000 faea 	bl	8003bd8 <memchr>
 8003604:	1c67      	adds	r7, r4, #1
 8003606:	9b04      	ldr	r3, [sp, #16]
 8003608:	b9d8      	cbnz	r0, 8003642 <_svfiprintf_r+0xd6>
 800360a:	06d9      	lsls	r1, r3, #27
 800360c:	bf44      	itt	mi
 800360e:	2220      	movmi	r2, #32
 8003610:	f88d 2053 	strbmi.w	r2, [sp, #83]	; 0x53
 8003614:	071a      	lsls	r2, r3, #28
 8003616:	bf44      	itt	mi
 8003618:	222b      	movmi	r2, #43	; 0x2b
 800361a:	f88d 2053 	strbmi.w	r2, [sp, #83]	; 0x53
 800361e:	7822      	ldrb	r2, [r4, #0]
 8003620:	2a2a      	cmp	r2, #42	; 0x2a
 8003622:	d016      	beq.n	8003652 <_svfiprintf_r+0xe6>
 8003624:	2100      	movs	r1, #0
 8003626:	200a      	movs	r0, #10
 8003628:	9a07      	ldr	r2, [sp, #28]
 800362a:	4627      	mov	r7, r4
 800362c:	783b      	ldrb	r3, [r7, #0]
 800362e:	3401      	adds	r4, #1
 8003630:	3b30      	subs	r3, #48	; 0x30
 8003632:	2b09      	cmp	r3, #9
 8003634:	d950      	bls.n	80036d8 <_svfiprintf_r+0x16c>
 8003636:	b1c9      	cbz	r1, 800366c <_svfiprintf_r+0x100>
 8003638:	e011      	b.n	800365e <_svfiprintf_r+0xf2>
 800363a:	2b25      	cmp	r3, #37	; 0x25
 800363c:	d0c0      	beq.n	80035c0 <_svfiprintf_r+0x54>
 800363e:	4627      	mov	r7, r4
 8003640:	e7b9      	b.n	80035b6 <_svfiprintf_r+0x4a>
 8003642:	4a3f      	ldr	r2, [pc, #252]	; (8003740 <_svfiprintf_r+0x1d4>)
 8003644:	463c      	mov	r4, r7
 8003646:	1a80      	subs	r0, r0, r2
 8003648:	fa0b f000 	lsl.w	r0, fp, r0
 800364c:	4318      	orrs	r0, r3
 800364e:	9004      	str	r0, [sp, #16]
 8003650:	e7d3      	b.n	80035fa <_svfiprintf_r+0x8e>
 8003652:	9a03      	ldr	r2, [sp, #12]
 8003654:	1d11      	adds	r1, r2, #4
 8003656:	6812      	ldr	r2, [r2, #0]
 8003658:	9103      	str	r1, [sp, #12]
 800365a:	2a00      	cmp	r2, #0
 800365c:	db01      	blt.n	8003662 <_svfiprintf_r+0xf6>
 800365e:	9207      	str	r2, [sp, #28]
 8003660:	e004      	b.n	800366c <_svfiprintf_r+0x100>
 8003662:	4252      	negs	r2, r2
 8003664:	f043 0302 	orr.w	r3, r3, #2
 8003668:	9207      	str	r2, [sp, #28]
 800366a:	9304      	str	r3, [sp, #16]
 800366c:	783b      	ldrb	r3, [r7, #0]
 800366e:	2b2e      	cmp	r3, #46	; 0x2e
 8003670:	d10d      	bne.n	800368e <_svfiprintf_r+0x122>
 8003672:	787b      	ldrb	r3, [r7, #1]
 8003674:	1c79      	adds	r1, r7, #1
 8003676:	2b2a      	cmp	r3, #42	; 0x2a
 8003678:	d132      	bne.n	80036e0 <_svfiprintf_r+0x174>
 800367a:	9b03      	ldr	r3, [sp, #12]
 800367c:	3702      	adds	r7, #2
 800367e:	1d1a      	adds	r2, r3, #4
 8003680:	681b      	ldr	r3, [r3, #0]
 8003682:	9203      	str	r2, [sp, #12]
 8003684:	2b00      	cmp	r3, #0
 8003686:	bfb8      	it	lt
 8003688:	f04f 33ff 	movlt.w	r3, #4294967295	; 0xffffffff
 800368c:	9305      	str	r3, [sp, #20]
 800368e:	4c2d      	ldr	r4, [pc, #180]	; (8003744 <_svfiprintf_r+0x1d8>)
 8003690:	2203      	movs	r2, #3
 8003692:	7839      	ldrb	r1, [r7, #0]
 8003694:	4620      	mov	r0, r4
 8003696:	f000 fa9f 	bl	8003bd8 <memchr>
 800369a:	b138      	cbz	r0, 80036ac <_svfiprintf_r+0x140>
 800369c:	2340      	movs	r3, #64	; 0x40
 800369e:	1b00      	subs	r0, r0, r4
 80036a0:	fa03 f000 	lsl.w	r0, r3, r0
 80036a4:	9b04      	ldr	r3, [sp, #16]
 80036a6:	3701      	adds	r7, #1
 80036a8:	4303      	orrs	r3, r0
 80036aa:	9304      	str	r3, [sp, #16]
 80036ac:	7839      	ldrb	r1, [r7, #0]
 80036ae:	2206      	movs	r2, #6
 80036b0:	4825      	ldr	r0, [pc, #148]	; (8003748 <_svfiprintf_r+0x1dc>)
 80036b2:	1c7e      	adds	r6, r7, #1
 80036b4:	f88d 1028 	strb.w	r1, [sp, #40]	; 0x28
 80036b8:	f000 fa8e 	bl	8003bd8 <memchr>
 80036bc:	2800      	cmp	r0, #0
 80036be:	d035      	beq.n	800372c <_svfiprintf_r+0x1c0>
 80036c0:	4b22      	ldr	r3, [pc, #136]	; (800374c <_svfiprintf_r+0x1e0>)
 80036c2:	b9fb      	cbnz	r3, 8003704 <_svfiprintf_r+0x198>
 80036c4:	9b03      	ldr	r3, [sp, #12]
 80036c6:	3307      	adds	r3, #7
 80036c8:	f023 0307 	bic.w	r3, r3, #7
 80036cc:	3308      	adds	r3, #8
 80036ce:	9303      	str	r3, [sp, #12]
 80036d0:	9b09      	ldr	r3, [sp, #36]	; 0x24
 80036d2:	444b      	add	r3, r9
 80036d4:	9309      	str	r3, [sp, #36]	; 0x24
 80036d6:	e76d      	b.n	80035b4 <_svfiprintf_r+0x48>
 80036d8:	fb00 3202 	mla	r2, r0, r2, r3
 80036dc:	2101      	movs	r1, #1
 80036de:	e7a4      	b.n	800362a <_svfiprintf_r+0xbe>
 80036e0:	2300      	movs	r3, #0
 80036e2:	240a      	movs	r4, #10
 80036e4:	4618      	mov	r0, r3
 80036e6:	9305      	str	r3, [sp, #20]
 80036e8:	460f      	mov	r7, r1
 80036ea:	783a      	ldrb	r2, [r7, #0]
 80036ec:	3101      	adds	r1, #1
 80036ee:	3a30      	subs	r2, #48	; 0x30
 80036f0:	2a09      	cmp	r2, #9
 80036f2:	d903      	bls.n	80036fc <_svfiprintf_r+0x190>
 80036f4:	2b00      	cmp	r3, #0
 80036f6:	d0ca      	beq.n	800368e <_svfiprintf_r+0x122>
 80036f8:	9005      	str	r0, [sp, #20]
 80036fa:	e7c8      	b.n	800368e <_svfiprintf_r+0x122>
 80036fc:	fb04 2000 	mla	r0, r4, r0, r2
 8003700:	2301      	movs	r3, #1
 8003702:	e7f1      	b.n	80036e8 <_svfiprintf_r+0x17c>
 8003704:	ab03      	add	r3, sp, #12
 8003706:	9300      	str	r3, [sp, #0]
 8003708:	462a      	mov	r2, r5
 800370a:	4b11      	ldr	r3, [pc, #68]	; (8003750 <_svfiprintf_r+0x1e4>)
 800370c:	a904      	add	r1, sp, #16
 800370e:	4640      	mov	r0, r8
 8003710:	f3af 8000 	nop.w
 8003714:	f1b0 3fff 	cmp.w	r0, #4294967295	; 0xffffffff
 8003718:	4681      	mov	r9, r0
 800371a:	d1d9      	bne.n	80036d0 <_svfiprintf_r+0x164>
 800371c:	89ab      	ldrh	r3, [r5, #12]
 800371e:	065b      	lsls	r3, r3, #25
 8003720:	f53f af39 	bmi.w	8003596 <_svfiprintf_r+0x2a>
 8003724:	9809      	ldr	r0, [sp, #36]	; 0x24
 8003726:	b01d      	add	sp, #116	; 0x74
 8003728:	e8bd 8ff0 	ldmia.w	sp!, {r4, r5, r6, r7, r8, r9, sl, fp, pc}
 800372c:	ab03      	add	r3, sp, #12
 800372e:	9300      	str	r3, [sp, #0]
 8003730:	462a      	mov	r2, r5
 8003732:	4b07      	ldr	r3, [pc, #28]	; (8003750 <_svfiprintf_r+0x1e4>)
 8003734:	a904      	add	r1, sp, #16
 8003736:	4640      	mov	r0, r8
 8003738:	f000 f884 	bl	8003844 <_printf_i>
 800373c:	e7ea      	b.n	8003714 <_svfiprintf_r+0x1a8>
 800373e:	bf00      	nop
 8003740:	08005aec 	.word	0x08005aec
 8003744:	08005af2 	.word	0x08005af2
 8003748:	08005af6 	.word	0x08005af6
 800374c:	00000000 	.word	0x00000000
 8003750:	080034b5 	.word	0x080034b5

08003754 <_printf_common>:
 8003754:	e92d 47f0 	stmdb	sp!, {r4, r5, r6, r7, r8, r9, sl, lr}
 8003758:	4691      	mov	r9, r2
 800375a:	461f      	mov	r7, r3
 800375c:	688a      	ldr	r2, [r1, #8]
 800375e:	690b      	ldr	r3, [r1, #16]
 8003760:	4606      	mov	r6, r0
 8003762:	4293      	cmp	r3, r2
 8003764:	bfb8      	it	lt
 8003766:	4613      	movlt	r3, r2
 8003768:	f8c9 3000 	str.w	r3, [r9]
 800376c:	f891 2043 	ldrb.w	r2, [r1, #67]	; 0x43
 8003770:	460c      	mov	r4, r1
 8003772:	f8dd 8020 	ldr.w	r8, [sp, #32]
 8003776:	b112      	cbz	r2, 800377e <_printf_common+0x2a>
 8003778:	3301      	adds	r3, #1
 800377a:	f8c9 3000 	str.w	r3, [r9]
 800377e:	6823      	ldr	r3, [r4, #0]
 8003780:	0699      	lsls	r1, r3, #26
 8003782:	bf42      	ittt	mi
 8003784:	f8d9 3000 	ldrmi.w	r3, [r9]
 8003788:	3302      	addmi	r3, #2
 800378a:	f8c9 3000 	strmi.w	r3, [r9]
 800378e:	6825      	ldr	r5, [r4, #0]
 8003790:	f015 0506 	ands.w	r5, r5, #6
 8003794:	d107      	bne.n	80037a6 <_printf_common+0x52>
 8003796:	f104 0a19 	add.w	sl, r4, #25
 800379a:	68e3      	ldr	r3, [r4, #12]
 800379c:	f8d9 2000 	ldr.w	r2, [r9]
 80037a0:	1a9b      	subs	r3, r3, r2
 80037a2:	429d      	cmp	r5, r3
 80037a4:	db2a      	blt.n	80037fc <_printf_common+0xa8>
 80037a6:	f894 3043 	ldrb.w	r3, [r4, #67]	; 0x43
 80037aa:	6822      	ldr	r2, [r4, #0]
 80037ac:	3300      	adds	r3, #0
 80037ae:	bf18      	it	ne
 80037b0:	2301      	movne	r3, #1
 80037b2:	0692      	lsls	r2, r2, #26
 80037b4:	d42f      	bmi.n	8003816 <_printf_common+0xc2>
 80037b6:	f104 0243 	add.w	r2, r4, #67	; 0x43
 80037ba:	4639      	mov	r1, r7
 80037bc:	4630      	mov	r0, r6
 80037be:	47c0      	blx	r8
 80037c0:	3001      	adds	r0, #1
 80037c2:	d022      	beq.n	800380a <_printf_common+0xb6>
 80037c4:	6823      	ldr	r3, [r4, #0]
 80037c6:	68e5      	ldr	r5, [r4, #12]
 80037c8:	f003 0306 	and.w	r3, r3, #6
 80037cc:	2b04      	cmp	r3, #4
 80037ce:	bf18      	it	ne
 80037d0:	2500      	movne	r5, #0
 80037d2:	f8d9 2000 	ldr.w	r2, [r9]
 80037d6:	f04f 0900 	mov.w	r9, #0
 80037da:	bf08      	it	eq
 80037dc:	1aad      	subeq	r5, r5, r2
 80037de:	68a3      	ldr	r3, [r4, #8]
 80037e0:	6922      	ldr	r2, [r4, #16]
 80037e2:	bf08      	it	eq
 80037e4:	ea25 75e5 	biceq.w	r5, r5, r5, asr #31
 80037e8:	4293      	cmp	r3, r2
 80037ea:	bfc4      	itt	gt
 80037ec:	1a9b      	subgt	r3, r3, r2
 80037ee:	18ed      	addgt	r5, r5, r3
 80037f0:	341a      	adds	r4, #26
 80037f2:	454d      	cmp	r5, r9
 80037f4:	d11b      	bne.n	800382e <_printf_common+0xda>
 80037f6:	2000      	movs	r0, #0
 80037f8:	e8bd 87f0 	ldmia.w	sp!, {r4, r5, r6, r7, r8, r9, sl, pc}
 80037fc:	2301      	movs	r3, #1
 80037fe:	4652      	mov	r2, sl
 8003800:	4639      	mov	r1, r7
 8003802:	4630      	mov	r0, r6
 8003804:	47c0      	blx	r8
 8003806:	3001      	adds	r0, #1
 8003808:	d103      	bne.n	8003812 <_printf_common+0xbe>
 800380a:	f04f 30ff 	mov.w	r0, #4294967295	; 0xffffffff
 800380e:	e8bd 87f0 	ldmia.w	sp!, {r4, r5, r6, r7, r8, r9, sl, pc}
 8003812:	3501      	adds	r5, #1
 8003814:	e7c1      	b.n	800379a <_printf_common+0x46>
 8003816:	2030      	movs	r0, #48	; 0x30
 8003818:	18e1      	adds	r1, r4, r3
 800381a:	f881 0043 	strb.w	r0, [r1, #67]	; 0x43
 800381e:	1c5a      	adds	r2, r3, #1
 8003820:	f894 1045 	ldrb.w	r1, [r4, #69]	; 0x45
 8003824:	4422      	add	r2, r4
 8003826:	3302      	adds	r3, #2
 8003828:	f882 1043 	strb.w	r1, [r2, #67]	; 0x43
 800382c:	e7c3      	b.n	80037b6 <_printf_common+0x62>
 800382e:	2301      	movs	r3, #1
 8003830:	4622      	mov	r2, r4
 8003832:	4639      	mov	r1, r7
 8003834:	4630      	mov	r0, r6
 8003836:	47c0      	blx	r8
 8003838:	3001      	adds	r0, #1
 800383a:	d0e6      	beq.n	800380a <_printf_common+0xb6>
 800383c:	f109 0901 	add.w	r9, r9, #1
 8003840:	e7d7      	b.n	80037f2 <_printf_common+0x9e>
	...

08003844 <_printf_i>:
 8003844:	e92d 43f0 	stmdb	sp!, {r4, r5, r6, r7, r8, r9, lr}
 8003848:	4617      	mov	r7, r2
 800384a:	7e0a      	ldrb	r2, [r1, #24]
 800384c:	b085      	sub	sp, #20
 800384e:	2a6e      	cmp	r2, #110	; 0x6e
 8003850:	4698      	mov	r8, r3
 8003852:	4606      	mov	r6, r0
 8003854:	460c      	mov	r4, r1
 8003856:	9b0c      	ldr	r3, [sp, #48]	; 0x30
 8003858:	f101 0e43 	add.w	lr, r1, #67	; 0x43
 800385c:	f000 80bc 	beq.w	80039d8 <_printf_i+0x194>
 8003860:	d81a      	bhi.n	8003898 <_printf_i+0x54>
 8003862:	2a63      	cmp	r2, #99	; 0x63
 8003864:	d02e      	beq.n	80038c4 <_printf_i+0x80>
 8003866:	d80a      	bhi.n	800387e <_printf_i+0x3a>
 8003868:	2a00      	cmp	r2, #0
 800386a:	f000 80c8 	beq.w	80039fe <_printf_i+0x1ba>
 800386e:	2a58      	cmp	r2, #88	; 0x58
 8003870:	f000 808a 	beq.w	8003988 <_printf_i+0x144>
 8003874:	f104 0542 	add.w	r5, r4, #66	; 0x42
 8003878:	f884 2042 	strb.w	r2, [r4, #66]	; 0x42
 800387c:	e02a      	b.n	80038d4 <_printf_i+0x90>
 800387e:	2a64      	cmp	r2, #100	; 0x64
 8003880:	d001      	beq.n	8003886 <_printf_i+0x42>
 8003882:	2a69      	cmp	r2, #105	; 0x69
 8003884:	d1f6      	bne.n	8003874 <_printf_i+0x30>
 8003886:	6821      	ldr	r1, [r4, #0]
 8003888:	681a      	ldr	r2, [r3, #0]
 800388a:	f011 0f80 	tst.w	r1, #128	; 0x80
 800388e:	d023      	beq.n	80038d8 <_printf_i+0x94>
 8003890:	1d11      	adds	r1, r2, #4
 8003892:	6019      	str	r1, [r3, #0]
 8003894:	6813      	ldr	r3, [r2, #0]
 8003896:	e027      	b.n	80038e8 <_printf_i+0xa4>
 8003898:	2a73      	cmp	r2, #115	; 0x73
 800389a:	f000 80b4 	beq.w	8003a06 <_printf_i+0x1c2>
 800389e:	d808      	bhi.n	80038b2 <_printf_i+0x6e>
 80038a0:	2a6f      	cmp	r2, #111	; 0x6f
 80038a2:	d02a      	beq.n	80038fa <_printf_i+0xb6>
 80038a4:	2a70      	cmp	r2, #112	; 0x70
 80038a6:	d1e5      	bne.n	8003874 <_printf_i+0x30>
 80038a8:	680a      	ldr	r2, [r1, #0]
 80038aa:	f042 0220 	orr.w	r2, r2, #32
 80038ae:	600a      	str	r2, [r1, #0]
 80038b0:	e003      	b.n	80038ba <_printf_i+0x76>
 80038b2:	2a75      	cmp	r2, #117	; 0x75
 80038b4:	d021      	beq.n	80038fa <_printf_i+0xb6>
 80038b6:	2a78      	cmp	r2, #120	; 0x78
 80038b8:	d1dc      	bne.n	8003874 <_printf_i+0x30>
 80038ba:	2278      	movs	r2, #120	; 0x78
 80038bc:	496f      	ldr	r1, [pc, #444]	; (8003a7c <_printf_i+0x238>)
 80038be:	f884 2045 	strb.w	r2, [r4, #69]	; 0x45
 80038c2:	e064      	b.n	800398e <_printf_i+0x14a>
 80038c4:	681a      	ldr	r2, [r3, #0]
 80038c6:	f101 0542 	add.w	r5, r1, #66	; 0x42
 80038ca:	1d11      	adds	r1, r2, #4
 80038cc:	6019      	str	r1, [r3, #0]
 80038ce:	6813      	ldr	r3, [r2, #0]
 80038d0:	f884 3042 	strb.w	r3, [r4, #66]	; 0x42
 80038d4:	2301      	movs	r3, #1
 80038d6:	e0a3      	b.n	8003a20 <_printf_i+0x1dc>
 80038d8:	f011 0f40 	tst.w	r1, #64	; 0x40
 80038dc:	f102 0104 	add.w	r1, r2, #4
 80038e0:	6019      	str	r1, [r3, #0]
 80038e2:	d0d7      	beq.n	8003894 <_printf_i+0x50>
 80038e4:	f9b2 3000 	ldrsh.w	r3, [r2]
 80038e8:	2b00      	cmp	r3, #0
 80038ea:	da03      	bge.n	80038f4 <_printf_i+0xb0>
 80038ec:	222d      	movs	r2, #45	; 0x2d
 80038ee:	425b      	negs	r3, r3
 80038f0:	f884 2043 	strb.w	r2, [r4, #67]	; 0x43
 80038f4:	4962      	ldr	r1, [pc, #392]	; (8003a80 <_printf_i+0x23c>)
 80038f6:	220a      	movs	r2, #10
 80038f8:	e017      	b.n	800392a <_printf_i+0xe6>
 80038fa:	6820      	ldr	r0, [r4, #0]
 80038fc:	6819      	ldr	r1, [r3, #0]
 80038fe:	f010 0f80 	tst.w	r0, #128	; 0x80
 8003902:	d003      	beq.n	800390c <_printf_i+0xc8>
 8003904:	1d08      	adds	r0, r1, #4
 8003906:	6018      	str	r0, [r3, #0]
 8003908:	680b      	ldr	r3, [r1, #0]
 800390a:	e006      	b.n	800391a <_printf_i+0xd6>
 800390c:	f010 0f40 	tst.w	r0, #64	; 0x40
 8003910:	f101 0004 	add.w	r0, r1, #4
 8003914:	6018      	str	r0, [r3, #0]
 8003916:	d0f7      	beq.n	8003908 <_printf_i+0xc4>
 8003918:	880b      	ldrh	r3, [r1, #0]
 800391a:	2a6f      	cmp	r2, #111	; 0x6f
 800391c:	bf14      	ite	ne
 800391e:	220a      	movne	r2, #10
 8003920:	2208      	moveq	r2, #8
 8003922:	4957      	ldr	r1, [pc, #348]	; (8003a80 <_printf_i+0x23c>)
 8003924:	2000      	movs	r0, #0
 8003926:	f884 0043 	strb.w	r0, [r4, #67]	; 0x43
 800392a:	6865      	ldr	r5, [r4, #4]
 800392c:	2d00      	cmp	r5, #0
 800392e:	60a5      	str	r5, [r4, #8]
 8003930:	f2c0 809c 	blt.w	8003a6c <_printf_i+0x228>
 8003934:	6820      	ldr	r0, [r4, #0]
 8003936:	f020 0004 	bic.w	r0, r0, #4
 800393a:	6020      	str	r0, [r4, #0]
 800393c:	2b00      	cmp	r3, #0
 800393e:	d13f      	bne.n	80039c0 <_printf_i+0x17c>
 8003940:	2d00      	cmp	r5, #0
 8003942:	f040 8095 	bne.w	8003a70 <_printf_i+0x22c>
 8003946:	4675      	mov	r5, lr
 8003948:	2a08      	cmp	r2, #8
 800394a:	d10b      	bne.n	8003964 <_printf_i+0x120>
 800394c:	6823      	ldr	r3, [r4, #0]
 800394e:	07da      	lsls	r2, r3, #31
 8003950:	d508      	bpl.n	8003964 <_printf_i+0x120>
 8003952:	6923      	ldr	r3, [r4, #16]
 8003954:	6862      	ldr	r2, [r4, #4]
 8003956:	429a      	cmp	r2, r3
 8003958:	bfde      	ittt	le
 800395a:	2330      	movle	r3, #48	; 0x30
 800395c:	f805 3c01 	strble.w	r3, [r5, #-1]
 8003960:	f105 35ff 	addle.w	r5, r5, #4294967295	; 0xffffffff
 8003964:	ebae 0305 	sub.w	r3, lr, r5
 8003968:	6123      	str	r3, [r4, #16]
 800396a:	f8cd 8000 	str.w	r8, [sp]
 800396e:	463b      	mov	r3, r7
 8003970:	aa03      	add	r2, sp, #12
 8003972:	4621      	mov	r1, r4
 8003974:	4630      	mov	r0, r6
 8003976:	f7ff feed 	bl	8003754 <_printf_common>
 800397a:	3001      	adds	r0, #1
 800397c:	d155      	bne.n	8003a2a <_printf_i+0x1e6>
 800397e:	f04f 30ff 	mov.w	r0, #4294967295	; 0xffffffff
 8003982:	b005      	add	sp, #20
 8003984:	e8bd 83f0 	ldmia.w	sp!, {r4, r5, r6, r7, r8, r9, pc}
 8003988:	f881 2045 	strb.w	r2, [r1, #69]	; 0x45
 800398c:	493c      	ldr	r1, [pc, #240]	; (8003a80 <_printf_i+0x23c>)
 800398e:	6822      	ldr	r2, [r4, #0]
 8003990:	6818      	ldr	r0, [r3, #0]
 8003992:	f012 0f80 	tst.w	r2, #128	; 0x80
 8003996:	f100 0504 	add.w	r5, r0, #4
 800399a:	601d      	str	r5, [r3, #0]
 800399c:	d001      	beq.n	80039a2 <_printf_i+0x15e>
 800399e:	6803      	ldr	r3, [r0, #0]
 80039a0:	e002      	b.n	80039a8 <_printf_i+0x164>
 80039a2:	0655      	lsls	r5, r2, #25
 80039a4:	d5fb      	bpl.n	800399e <_printf_i+0x15a>
 80039a6:	8803      	ldrh	r3, [r0, #0]
 80039a8:	07d0      	lsls	r0, r2, #31
 80039aa:	bf44      	itt	mi
 80039ac:	f042 0220 	orrmi.w	r2, r2, #32
 80039b0:	6022      	strmi	r2, [r4, #0]
 80039b2:	b91b      	cbnz	r3, 80039bc <_printf_i+0x178>
 80039b4:	6822      	ldr	r2, [r4, #0]
 80039b6:	f022 0220 	bic.w	r2, r2, #32
 80039ba:	6022      	str	r2, [r4, #0]
 80039bc:	2210      	movs	r2, #16
 80039be:	e7b1      	b.n	8003924 <_printf_i+0xe0>
 80039c0:	4675      	mov	r5, lr
 80039c2:	fbb3 f0f2 	udiv	r0, r3, r2
 80039c6:	fb02 3310 	mls	r3, r2, r0, r3
 80039ca:	5ccb      	ldrb	r3, [r1, r3]
 80039cc:	f805 3d01 	strb.w	r3, [r5, #-1]!
 80039d0:	4603      	mov	r3, r0
 80039d2:	2800      	cmp	r0, #0
 80039d4:	d1f5      	bne.n	80039c2 <_printf_i+0x17e>
 80039d6:	e7b7      	b.n	8003948 <_printf_i+0x104>
 80039d8:	6808      	ldr	r0, [r1, #0]
 80039da:	681a      	ldr	r2, [r3, #0]
 80039dc:	f010 0f80 	tst.w	r0, #128	; 0x80
 80039e0:	6949      	ldr	r1, [r1, #20]
 80039e2:	d004      	beq.n	80039ee <_printf_i+0x1aa>
 80039e4:	1d10      	adds	r0, r2, #4
 80039e6:	6018      	str	r0, [r3, #0]
 80039e8:	6813      	ldr	r3, [r2, #0]
 80039ea:	6019      	str	r1, [r3, #0]
 80039ec:	e007      	b.n	80039fe <_printf_i+0x1ba>
 80039ee:	f010 0f40 	tst.w	r0, #64	; 0x40
 80039f2:	f102 0004 	add.w	r0, r2, #4
 80039f6:	6018      	str	r0, [r3, #0]
 80039f8:	6813      	ldr	r3, [r2, #0]
 80039fa:	d0f6      	beq.n	80039ea <_printf_i+0x1a6>
 80039fc:	8019      	strh	r1, [r3, #0]
 80039fe:	2300      	movs	r3, #0
 8003a00:	4675      	mov	r5, lr
 8003a02:	6123      	str	r3, [r4, #16]
 8003a04:	e7b1      	b.n	800396a <_printf_i+0x126>
 8003a06:	681a      	ldr	r2, [r3, #0]
 8003a08:	1d11      	adds	r1, r2, #4
 8003a0a:	6019      	str	r1, [r3, #0]
 8003a0c:	6815      	ldr	r5, [r2, #0]
 8003a0e:	2100      	movs	r1, #0
 8003a10:	6862      	ldr	r2, [r4, #4]
 8003a12:	4628      	mov	r0, r5
 8003a14:	f000 f8e0 	bl	8003bd8 <memchr>
 8003a18:	b108      	cbz	r0, 8003a1e <_printf_i+0x1da>
 8003a1a:	1b40      	subs	r0, r0, r5
 8003a1c:	6060      	str	r0, [r4, #4]
 8003a1e:	6863      	ldr	r3, [r4, #4]
 8003a20:	6123      	str	r3, [r4, #16]
 8003a22:	2300      	movs	r3, #0
 8003a24:	f884 3043 	strb.w	r3, [r4, #67]	; 0x43
 8003a28:	e79f      	b.n	800396a <_printf_i+0x126>
 8003a2a:	6923      	ldr	r3, [r4, #16]
 8003a2c:	462a      	mov	r2, r5
 8003a2e:	4639      	mov	r1, r7
 8003a30:	4630      	mov	r0, r6
 8003a32:	47c0      	blx	r8
 8003a34:	3001      	adds	r0, #1
 8003a36:	d0a2      	beq.n	800397e <_printf_i+0x13a>
 8003a38:	6823      	ldr	r3, [r4, #0]
 8003a3a:	079b      	lsls	r3, r3, #30
 8003a3c:	d507      	bpl.n	8003a4e <_printf_i+0x20a>
 8003a3e:	2500      	movs	r5, #0
 8003a40:	f104 0919 	add.w	r9, r4, #25
 8003a44:	68e3      	ldr	r3, [r4, #12]
 8003a46:	9a03      	ldr	r2, [sp, #12]
 8003a48:	1a9b      	subs	r3, r3, r2
 8003a4a:	429d      	cmp	r5, r3
 8003a4c:	db05      	blt.n	8003a5a <_printf_i+0x216>
 8003a4e:	68e0      	ldr	r0, [r4, #12]
 8003a50:	9b03      	ldr	r3, [sp, #12]
 8003a52:	4298      	cmp	r0, r3
 8003a54:	bfb8      	it	lt
 8003a56:	4618      	movlt	r0, r3
 8003a58:	e793      	b.n	8003982 <_printf_i+0x13e>
 8003a5a:	2301      	movs	r3, #1
 8003a5c:	464a      	mov	r2, r9
 8003a5e:	4639      	mov	r1, r7
 8003a60:	4630      	mov	r0, r6
 8003a62:	47c0      	blx	r8
 8003a64:	3001      	adds	r0, #1
 8003a66:	d08a      	beq.n	800397e <_printf_i+0x13a>
 8003a68:	3501      	adds	r5, #1
 8003a6a:	e7eb      	b.n	8003a44 <_printf_i+0x200>
 8003a6c:	2b00      	cmp	r3, #0
 8003a6e:	d1a7      	bne.n	80039c0 <_printf_i+0x17c>
 8003a70:	780b      	ldrb	r3, [r1, #0]
 8003a72:	f104 0542 	add.w	r5, r4, #66	; 0x42
 8003a76:	f884 3042 	strb.w	r3, [r4, #66]	; 0x42
 8003a7a:	e765      	b.n	8003948 <_printf_i+0x104>
 8003a7c:	08005b0e 	.word	0x08005b0e
 8003a80:	08005afd 	.word	0x08005afd

08003a84 <_sbrk_r>:
 8003a84:	b538      	push	{r3, r4, r5, lr}
 8003a86:	2300      	movs	r3, #0
 8003a88:	4c05      	ldr	r4, [pc, #20]	; (8003aa0 <_sbrk_r+0x1c>)
 8003a8a:	4605      	mov	r5, r0
 8003a8c:	4608      	mov	r0, r1
 8003a8e:	6023      	str	r3, [r4, #0]
 8003a90:	f7fe fa16 	bl	8001ec0 <_sbrk>
 8003a94:	1c43      	adds	r3, r0, #1
 8003a96:	d102      	bne.n	8003a9e <_sbrk_r+0x1a>
 8003a98:	6823      	ldr	r3, [r4, #0]
 8003a9a:	b103      	cbz	r3, 8003a9e <_sbrk_r+0x1a>
 8003a9c:	602b      	str	r3, [r5, #0]
 8003a9e:	bd38      	pop	{r3, r4, r5, pc}
 8003aa0:	20000380 	.word	0x20000380

08003aa4 <__sread>:
 8003aa4:	b510      	push	{r4, lr}
 8003aa6:	460c      	mov	r4, r1
 8003aa8:	f9b1 100e 	ldrsh.w	r1, [r1, #14]
 8003aac:	f000 f8f0 	bl	8003c90 <_read_r>
 8003ab0:	2800      	cmp	r0, #0
 8003ab2:	bfab      	itete	ge
 8003ab4:	6d63      	ldrge	r3, [r4, #84]	; 0x54
 8003ab6:	89a3      	ldrhlt	r3, [r4, #12]
 8003ab8:	181b      	addge	r3, r3, r0
 8003aba:	f423 5380 	biclt.w	r3, r3, #4096	; 0x1000
 8003abe:	bfac      	ite	ge
 8003ac0:	6563      	strge	r3, [r4, #84]	; 0x54
 8003ac2:	81a3      	strhlt	r3, [r4, #12]
 8003ac4:	bd10      	pop	{r4, pc}

08003ac6 <__swrite>:
 8003ac6:	e92d 41f0 	stmdb	sp!, {r4, r5, r6, r7, r8, lr}
 8003aca:	461f      	mov	r7, r3
 8003acc:	898b      	ldrh	r3, [r1, #12]
 8003ace:	4605      	mov	r5, r0
 8003ad0:	05db      	lsls	r3, r3, #23
 8003ad2:	460c      	mov	r4, r1
 8003ad4:	4616      	mov	r6, r2
 8003ad6:	d505      	bpl.n	8003ae4 <__swrite+0x1e>
 8003ad8:	2302      	movs	r3, #2
 8003ada:	2200      	movs	r2, #0
 8003adc:	f9b1 100e 	ldrsh.w	r1, [r1, #14]
 8003ae0:	f000 f868 	bl	8003bb4 <_lseek_r>
 8003ae4:	89a3      	ldrh	r3, [r4, #12]
 8003ae6:	4632      	mov	r2, r6
 8003ae8:	f423 5380 	bic.w	r3, r3, #4096	; 0x1000
 8003aec:	81a3      	strh	r3, [r4, #12]
 8003aee:	f9b4 100e 	ldrsh.w	r1, [r4, #14]
 8003af2:	463b      	mov	r3, r7
 8003af4:	4628      	mov	r0, r5
 8003af6:	e8bd 41f0 	ldmia.w	sp!, {r4, r5, r6, r7, r8, lr}
 8003afa:	f000 b817 	b.w	8003b2c <_write_r>

08003afe <__sseek>:
 8003afe:	b510      	push	{r4, lr}
 8003b00:	460c      	mov	r4, r1
 8003b02:	f9b1 100e 	ldrsh.w	r1, [r1, #14]
 8003b06:	f000 f855 	bl	8003bb4 <_lseek_r>
 8003b0a:	1c43      	adds	r3, r0, #1
 8003b0c:	89a3      	ldrh	r3, [r4, #12]
 8003b0e:	bf15      	itete	ne
 8003b10:	6560      	strne	r0, [r4, #84]	; 0x54
 8003b12:	f423 5380 	biceq.w	r3, r3, #4096	; 0x1000
 8003b16:	f443 5380 	orrne.w	r3, r3, #4096	; 0x1000
 8003b1a:	81a3      	strheq	r3, [r4, #12]
 8003b1c:	bf18      	it	ne
 8003b1e:	81a3      	strhne	r3, [r4, #12]
 8003b20:	bd10      	pop	{r4, pc}

08003b22 <__sclose>:
 8003b22:	f9b1 100e 	ldrsh.w	r1, [r1, #14]
 8003b26:	f000 b813 	b.w	8003b50 <_close_r>
	...

08003b2c <_write_r>:
 8003b2c:	b538      	push	{r3, r4, r5, lr}
 8003b2e:	4605      	mov	r5, r0
 8003b30:	4608      	mov	r0, r1
 8003b32:	4611      	mov	r1, r2
 8003b34:	2200      	movs	r2, #0
 8003b36:	4c05      	ldr	r4, [pc, #20]	; (8003b4c <_write_r+0x20>)
 8003b38:	6022      	str	r2, [r4, #0]
 8003b3a:	461a      	mov	r2, r3
 8003b3c:	f7fd fdbe 	bl	80016bc <_write>
 8003b40:	1c43      	adds	r3, r0, #1
 8003b42:	d102      	bne.n	8003b4a <_write_r+0x1e>
 8003b44:	6823      	ldr	r3, [r4, #0]
 8003b46:	b103      	cbz	r3, 8003b4a <_write_r+0x1e>
 8003b48:	602b      	str	r3, [r5, #0]
 8003b4a:	bd38      	pop	{r3, r4, r5, pc}
 8003b4c:	20000380 	.word	0x20000380

08003b50 <_close_r>:
 8003b50:	b538      	push	{r3, r4, r5, lr}
 8003b52:	2300      	movs	r3, #0
 8003b54:	4c05      	ldr	r4, [pc, #20]	; (8003b6c <_close_r+0x1c>)
 8003b56:	4605      	mov	r5, r0
 8003b58:	4608      	mov	r0, r1
 8003b5a:	6023      	str	r3, [r4, #0]
 8003b5c:	f7fe f9ca 	bl	8001ef4 <_close>
 8003b60:	1c43      	adds	r3, r0, #1
 8003b62:	d102      	bne.n	8003b6a <_close_r+0x1a>
 8003b64:	6823      	ldr	r3, [r4, #0]
 8003b66:	b103      	cbz	r3, 8003b6a <_close_r+0x1a>
 8003b68:	602b      	str	r3, [r5, #0]
 8003b6a:	bd38      	pop	{r3, r4, r5, pc}
 8003b6c:	20000380 	.word	0x20000380

08003b70 <_fstat_r>:
 8003b70:	b538      	push	{r3, r4, r5, lr}
 8003b72:	2300      	movs	r3, #0
 8003b74:	4c06      	ldr	r4, [pc, #24]	; (8003b90 <_fstat_r+0x20>)
 8003b76:	4605      	mov	r5, r0
 8003b78:	4608      	mov	r0, r1
 8003b7a:	4611      	mov	r1, r2
 8003b7c:	6023      	str	r3, [r4, #0]
 8003b7e:	f7fe f9bc 	bl	8001efa <_fstat>
 8003b82:	1c43      	adds	r3, r0, #1
 8003b84:	d102      	bne.n	8003b8c <_fstat_r+0x1c>
 8003b86:	6823      	ldr	r3, [r4, #0]
 8003b88:	b103      	cbz	r3, 8003b8c <_fstat_r+0x1c>
 8003b8a:	602b      	str	r3, [r5, #0]
 8003b8c:	bd38      	pop	{r3, r4, r5, pc}
 8003b8e:	bf00      	nop
 8003b90:	20000380 	.word	0x20000380

08003b94 <_isatty_r>:
 8003b94:	b538      	push	{r3, r4, r5, lr}
 8003b96:	2300      	movs	r3, #0
 8003b98:	4c05      	ldr	r4, [pc, #20]	; (8003bb0 <_isatty_r+0x1c>)
 8003b9a:	4605      	mov	r5, r0
 8003b9c:	4608      	mov	r0, r1
 8003b9e:	6023      	str	r3, [r4, #0]
 8003ba0:	f7fe f9b0 	bl	8001f04 <_isatty>
 8003ba4:	1c43      	adds	r3, r0, #1
 8003ba6:	d102      	bne.n	8003bae <_isatty_r+0x1a>
 8003ba8:	6823      	ldr	r3, [r4, #0]
 8003baa:	b103      	cbz	r3, 8003bae <_isatty_r+0x1a>
 8003bac:	602b      	str	r3, [r5, #0]
 8003bae:	bd38      	pop	{r3, r4, r5, pc}
 8003bb0:	20000380 	.word	0x20000380

08003bb4 <_lseek_r>:
 8003bb4:	b538      	push	{r3, r4, r5, lr}
 8003bb6:	4605      	mov	r5, r0
 8003bb8:	4608      	mov	r0, r1
 8003bba:	4611      	mov	r1, r2
 8003bbc:	2200      	movs	r2, #0
 8003bbe:	4c05      	ldr	r4, [pc, #20]	; (8003bd4 <_lseek_r+0x20>)
 8003bc0:	6022      	str	r2, [r4, #0]
 8003bc2:	461a      	mov	r2, r3
 8003bc4:	f7fe f9a0 	bl	8001f08 <_lseek>
 8003bc8:	1c43      	adds	r3, r0, #1
 8003bca:	d102      	bne.n	8003bd2 <_lseek_r+0x1e>
 8003bcc:	6823      	ldr	r3, [r4, #0]
 8003bce:	b103      	cbz	r3, 8003bd2 <_lseek_r+0x1e>
 8003bd0:	602b      	str	r3, [r5, #0]
 8003bd2:	bd38      	pop	{r3, r4, r5, pc}
 8003bd4:	20000380 	.word	0x20000380

08003bd8 <memchr>:
 8003bd8:	b510      	push	{r4, lr}
 8003bda:	b2c9      	uxtb	r1, r1
 8003bdc:	4402      	add	r2, r0
 8003bde:	4290      	cmp	r0, r2
 8003be0:	4603      	mov	r3, r0
 8003be2:	d101      	bne.n	8003be8 <memchr+0x10>
 8003be4:	2000      	movs	r0, #0
 8003be6:	bd10      	pop	{r4, pc}
 8003be8:	781c      	ldrb	r4, [r3, #0]
 8003bea:	3001      	adds	r0, #1
 8003bec:	428c      	cmp	r4, r1
 8003bee:	d1f6      	bne.n	8003bde <memchr+0x6>
 8003bf0:	4618      	mov	r0, r3
 8003bf2:	bd10      	pop	{r4, pc}

08003bf4 <memcpy>:
 8003bf4:	b510      	push	{r4, lr}
 8003bf6:	1e43      	subs	r3, r0, #1
 8003bf8:	440a      	add	r2, r1
 8003bfa:	4291      	cmp	r1, r2
 8003bfc:	d100      	bne.n	8003c00 <memcpy+0xc>
 8003bfe:	bd10      	pop	{r4, pc}
 8003c00:	f811 4b01 	ldrb.w	r4, [r1], #1
 8003c04:	f803 4f01 	strb.w	r4, [r3, #1]!
 8003c08:	e7f7      	b.n	8003bfa <memcpy+0x6>

08003c0a <memmove>:
 8003c0a:	4288      	cmp	r0, r1
 8003c0c:	b510      	push	{r4, lr}
 8003c0e:	eb01 0302 	add.w	r3, r1, r2
 8003c12:	d803      	bhi.n	8003c1c <memmove+0x12>
 8003c14:	1e42      	subs	r2, r0, #1
 8003c16:	4299      	cmp	r1, r3
 8003c18:	d10c      	bne.n	8003c34 <memmove+0x2a>
 8003c1a:	bd10      	pop	{r4, pc}
 8003c1c:	4298      	cmp	r0, r3
 8003c1e:	d2f9      	bcs.n	8003c14 <memmove+0xa>
 8003c20:	1881      	adds	r1, r0, r2
 8003c22:	1ad2      	subs	r2, r2, r3
 8003c24:	42d3      	cmn	r3, r2
 8003c26:	d100      	bne.n	8003c2a <memmove+0x20>
 8003c28:	bd10      	pop	{r4, pc}
 8003c2a:	f813 4d01 	ldrb.w	r4, [r3, #-1]!
 8003c2e:	f801 4d01 	strb.w	r4, [r1, #-1]!
 8003c32:	e7f7      	b.n	8003c24 <memmove+0x1a>
 8003c34:	f811 4b01 	ldrb.w	r4, [r1], #1
 8003c38:	f802 4f01 	strb.w	r4, [r2, #1]!
 8003c3c:	e7eb      	b.n	8003c16 <memmove+0xc>

08003c3e <__malloc_lock>:
 8003c3e:	4770      	bx	lr

08003c40 <__malloc_unlock>:
 8003c40:	4770      	bx	lr

08003c42 <_realloc_r>:
 8003c42:	b5f8      	push	{r3, r4, r5, r6, r7, lr}
 8003c44:	4607      	mov	r7, r0
 8003c46:	4614      	mov	r4, r2
 8003c48:	460e      	mov	r6, r1
 8003c4a:	b921      	cbnz	r1, 8003c56 <_realloc_r+0x14>
 8003c4c:	4611      	mov	r1, r2
 8003c4e:	e8bd 40f8 	ldmia.w	sp!, {r3, r4, r5, r6, r7, lr}
 8003c52:	f7ff bbd1 	b.w	80033f8 <_malloc_r>
 8003c56:	b922      	cbnz	r2, 8003c62 <_realloc_r+0x20>
 8003c58:	f7ff fb82 	bl	8003360 <_free_r>
 8003c5c:	4625      	mov	r5, r4
 8003c5e:	4628      	mov	r0, r5
 8003c60:	bdf8      	pop	{r3, r4, r5, r6, r7, pc}
 8003c62:	f000 f827 	bl	8003cb4 <_malloc_usable_size_r>
 8003c66:	4284      	cmp	r4, r0
 8003c68:	d90f      	bls.n	8003c8a <_realloc_r+0x48>
 8003c6a:	4621      	mov	r1, r4
 8003c6c:	4638      	mov	r0, r7
 8003c6e:	f7ff fbc3 	bl	80033f8 <_malloc_r>
 8003c72:	4605      	mov	r5, r0
 8003c74:	2800      	cmp	r0, #0
 8003c76:	d0f2      	beq.n	8003c5e <_realloc_r+0x1c>
 8003c78:	4631      	mov	r1, r6
 8003c7a:	4622      	mov	r2, r4
 8003c7c:	f7ff ffba 	bl	8003bf4 <memcpy>
 8003c80:	4631      	mov	r1, r6
 8003c82:	4638      	mov	r0, r7
 8003c84:	f7ff fb6c 	bl	8003360 <_free_r>
 8003c88:	e7e9      	b.n	8003c5e <_realloc_r+0x1c>
 8003c8a:	4635      	mov	r5, r6
 8003c8c:	e7e7      	b.n	8003c5e <_realloc_r+0x1c>
	...

08003c90 <_read_r>:
 8003c90:	b538      	push	{r3, r4, r5, lr}
 8003c92:	4605      	mov	r5, r0
 8003c94:	4608      	mov	r0, r1
 8003c96:	4611      	mov	r1, r2
 8003c98:	2200      	movs	r2, #0
 8003c9a:	4c05      	ldr	r4, [pc, #20]	; (8003cb0 <_read_r+0x20>)
 8003c9c:	6022      	str	r2, [r4, #0]
 8003c9e:	461a      	mov	r2, r3
 8003ca0:	f7fe f900 	bl	8001ea4 <_read>
 8003ca4:	1c43      	adds	r3, r0, #1
 8003ca6:	d102      	bne.n	8003cae <_read_r+0x1e>
 8003ca8:	6823      	ldr	r3, [r4, #0]
 8003caa:	b103      	cbz	r3, 8003cae <_read_r+0x1e>
 8003cac:	602b      	str	r3, [r5, #0]
 8003cae:	bd38      	pop	{r3, r4, r5, pc}
 8003cb0:	20000380 	.word	0x20000380

08003cb4 <_malloc_usable_size_r>:
 8003cb4:	f851 0c04 	ldr.w	r0, [r1, #-4]
 8003cb8:	2800      	cmp	r0, #0
 8003cba:	f1a0 0004 	sub.w	r0, r0, #4
 8003cbe:	bfbc      	itt	lt
 8003cc0:	580b      	ldrlt	r3, [r1, r0]
 8003cc2:	18c0      	addlt	r0, r0, r3
 8003cc4:	4770      	bx	lr
	...

08003cc8 <_init>:
 8003cc8:	b5f8      	push	{r3, r4, r5, r6, r7, lr}
 8003cca:	bf00      	nop
 8003ccc:	bcf8      	pop	{r3, r4, r5, r6, r7}
 8003cce:	bc08      	pop	{r3}
 8003cd0:	469e      	mov	lr, r3
 8003cd2:	4770      	bx	lr

08003cd4 <_fini>:
 8003cd4:	b5f8      	push	{r3, r4, r5, r6, r7, lr}
 8003cd6:	bf00      	nop
 8003cd8:	bcf8      	pop	{r3, r4, r5, r6, r7}
 8003cda:	bc08      	pop	{r3}
 8003cdc:	469e      	mov	lr, r3
 8003cde:	4770      	bx	lr
